libyui.so.8 libyui3 #MINVER#
 _Z10_YUI_THROWI12YUIExceptionEvRKT_RK13YCodeLocation@Base 3.3.3-1
 _Z10_YUI_THROWI18YUIPluginExceptionEvRKT_RK13YCodeLocation@Base 3.3.3-1
 _Z10_YUI_THROWI20YUINoDialogExceptionEvRKT_RK13YCodeLocation@Base 3.3.3-1
 _Z10_YUI_THROWI23YUINullPointerExceptionEvRKT_RK13YCodeLocation@Base 3.3.3-1
 _Z10_YUI_THROWI23YUIOutOfMemoryExceptionEvRKT_RK13YCodeLocation@Base 3.3.3-1
 _Z10_YUI_THROWI24YUIInvalidChildExceptionI7YWidgetEEvRKT_RK13YCodeLocation@Base 3.3.3-1
 _Z10_YUI_THROWI25YUICantLoadAnyUIExceptionEvRKT_RK13YCodeLocation@Base 3.3.3-1
 _Z10_YUI_THROWI25YUIInvalidWidgetExceptionEvRKT_RK13YCodeLocation@Base 3.3.3-1
 _Z10_YUI_THROWI26YUIWidgetNotFoundExceptionEvRKT_RK13YCodeLocation@Base 3.3.3-1
 _Z10_YUI_THROWI27YUIIndexOutOfRangeExceptionEvRKT_RK13YCodeLocation@Base 3.3.3-1
 _Z10_YUI_THROWI27YUITooManyChildrenExceptionI7YWidgetEEvRKT_RK13YCodeLocation@Base 3.3.3-1
 _Z10_YUI_THROWI27YUIUnknownPropertyExceptionEvRKT_RK13YCodeLocation@Base 3.3.3-1
 _Z10_YUI_THROWI28YUIInvalidDimensionExceptionEvRKT_RK13YCodeLocation@Base 3.3.3-1
 _Z10_YUI_THROWI29YUIUnsupportedWidgetExceptionEvRKT_RK13YCodeLocation@Base 3.3.3-1
 _Z10_YUI_THROWI30YUIButtonRoleMismatchExceptionEvRKT_RK13YCodeLocation@Base 3.3.3-1
 _Z10_YUI_THROWI31YUIDialogStackingOrderExceptionEvRKT_RK13YCodeLocation@Base 3.3.3-1
 _Z12_YUI_RETHROWI12YUIExceptionEvRKT_RK13YCodeLocation@Base 3.3.3-1
 _Z14fillWidgetTreeP7YDialogP5YTree@Base 3.3.3-1
 _Z15start_ui_threadPv@Base 3.3.3-1
 _Z5isBoxPK7YWidget@Base 3.3.3-1
 _Z6isVBoxPK7YWidget@Base 3.3.3-1
 _Z7tolowerRKSs@Base 3.3.3-1
 _ZN10YAlignment11setMinWidthEi@Base 3.3.3-1
 _ZN10YAlignment12setMinHeightEi@Base 3.3.3-1
 _ZN10YAlignment12setTopMarginEi@Base 3.3.3-1
 _ZN10YAlignment13setLeftMarginEi@Base 3.3.3-1
 _ZN10YAlignment14preferredWidthEv@Base 3.3.3-1
 _ZN10YAlignment14setRightMarginEi@Base 3.3.3-1
 _ZN10YAlignment15preferredHeightEv@Base 3.3.3-1
 _ZN10YAlignment15setBottomMarginEi@Base 3.3.3-1
 _ZN10YAlignment19setBackgroundPixmapERKSs@Base 3.3.3-1
 _ZN10YAlignment7setSizeEii@Base 3.3.3-1
 _ZN10YAlignment8addChildEP7YWidget@Base 3.3.3-1
 _ZN10YAlignmentC1EP7YWidget14YAlignmentTypeS2_@Base 3.3.3-1
 _ZN10YAlignmentC2EP7YWidget14YAlignmentTypeS2_@Base 3.3.3-1
 _ZN10YAlignmentD0Ev@Base 3.3.3-1
 _ZN10YAlignmentD1Ev@Base 3.3.3-1
 _ZN10YAlignmentD2Ev@Base 3.3.3-1
 _ZN10YButtonBox10findButtonE11YButtonRole@Base 3.3.3-1
 _ZN10YButtonBox10setMarginsERK17YButtonBoxMargins@Base 3.3.3-1
 _ZN10YButtonBox11sanityCheckEv@Base 3.3.3-1
 _ZN10YButtonBox12layoutPolicyEv@Base 3.3.3-1
 _ZN10YButtonBox13_layoutPolicyE@Base 3.3.3-1
 _ZN10YButtonBox14defaultMarginsEv@Base 3.3.3-1
 _ZN10YButtonBox14preferredWidthEb@Base 3.3.3-1
 _ZN10YButtonBox14preferredWidthEv@Base 3.3.3-1
 _ZN10YButtonBox15_defaultMarginsE@Base 3.3.3-1
 _ZN10YButtonBox15kdeLayoutPolicyEv@Base 3.3.3-1
 _ZN10YButtonBox15preferredHeightEv@Base 3.3.3-1
 _ZN10YButtonBox15setLayoutPolicyERK22YButtonBoxLayoutPolicy@Base 3.3.3-1
 _ZN10YButtonBox17gnomeLayoutPolicyEv@Base 3.3.3-1
 _ZN10YButtonBox17setDefaultMarginsERK17YButtonBoxMargins@Base 3.3.3-1
 _ZN10YButtonBox20buttonsByButtonOrderEv@Base 3.3.3-1
 _ZN10YButtonBox21setSanityCheckRelaxedEb@Base 3.3.3-1
 _ZN10YButtonBox7setSizeEii@Base 3.3.3-1
 _ZN10YButtonBox8doLayoutEii@Base 3.3.3-1
 _ZN10YButtonBoxC1EP7YWidget@Base 3.3.3-1
 _ZN10YButtonBoxC2EP7YWidget@Base 3.3.3-1
 _ZN10YButtonBoxD0Ev@Base 3.3.3-1
 _ZN10YButtonBoxD1Ev@Base 3.3.3-1
 _ZN10YButtonBoxD2Ev@Base 3.3.3-1
 _ZN10YDateFieldC1EP7YWidgetRKSs@Base 3.3.3-1
 _ZN10YDateFieldC2EP7YWidgetRKSs@Base 3.3.3-1
 _ZN10YDateFieldD0Ev@Base 3.3.3-1
 _ZN10YDateFieldD1Ev@Base 3.3.3-1
 _ZN10YDateFieldD2Ev@Base 3.3.3-1
 _ZN10YDialogSpy13showDialogSpyEP7YDialog@Base 3.3.3-1
 _ZN10YDialogSpy4execEv@Base 3.3.3-1
 _ZN10YDialogSpyC1EP7YDialog@Base 3.3.3-1
 _ZN10YDialogSpyC2EP7YDialog@Base 3.3.3-1
 _ZN10YDialogSpyD0Ev@Base 3.3.3-1
 _ZN10YDialogSpyD1Ev@Base 3.3.3-1
 _ZN10YDialogSpyD2Ev@Base 3.3.3-1
 _ZN10YLayoutBox13preferredSizeE12YUIDimension@Base 3.3.3-1
 _ZN10YLayoutBox14preferredWidthEv@Base 3.3.3-1
 _ZN10YLayoutBox14setDebugLayoutEb@Base 3.3.3-1
 _ZN10YLayoutBox15isLayoutStretchEP7YWidget12YUIDimension@Base 3.3.3-1
 _ZN10YLayoutBox15preferredHeightEv@Base 3.3.3-1
 _ZN10YLayoutBox19calcPrimaryGeometryEiRSt6vectorIiSaIiEES3_@Base 3.3.3-1
 _ZN10YLayoutBox19childrenTotalWeightE12YUIDimension@Base 3.3.3-1
 _ZN10YLayoutBox19findDominatingChildEv@Base 3.3.3-1
 _ZN10YLayoutBox21calcSecondaryGeometryEiRSt6vectorIiSaIiEES3_@Base 3.3.3-1
 _ZN10YLayoutBox24childrenMaxPreferredSizeE12YUIDimension@Base 3.3.3-1
 _ZN10YLayoutBox24countNonWeightedChildrenE12YUIDimension@Base 3.3.3-1
 _ZN10YLayoutBox24countStretchableChildrenE12YUIDimension@Base 3.3.3-1
 _ZN10YLayoutBox26countLayoutStretchChildrenE12YUIDimension@Base 3.3.3-1
 _ZN10YLayoutBox37totalNonWeightedChildrenPreferredSizeE12YUIDimension@Base 3.3.3-1
 _ZN10YLayoutBox7setSizeEii@Base 3.3.3-1
 _ZN10YLayoutBox8doResizeERSt6vectorIiSaIiEES3_S3_S3_@Base 3.3.3-1
 _ZN10YLayoutBoxC1EP7YWidget12YUIDimension@Base 3.3.3-1
 _ZN10YLayoutBoxC2EP7YWidget12YUIDimension@Base 3.3.3-1
 _ZN10YLayoutBoxD0Ev@Base 3.3.3-1
 _ZN10YLayoutBoxD1Ev@Base 3.3.3-1
 _ZN10YLayoutBoxD2Ev@Base 3.3.3-1
 _ZN10YTableCell8reparentEP10YTableItemi@Base 3.3.3-1
 _ZN10YTableCellD0Ev@Base 3.3.3-1
 _ZN10YTableCellD1Ev@Base 3.3.3-1
 _ZN10YTableCellD2Ev@Base 3.3.3-1
 _ZN10YTableItem11deleteCellsEv@Base 3.3.3-1
 _ZN10YTableItem4cellEi@Base 3.3.3-1
 _ZN10YTableItem7addCellEP10YTableCell@Base 3.3.3-1
 _ZN10YTableItem7addCellERKSsS1_@Base 3.3.3-1
 _ZN10YTableItemC1ERKSsS1_S1_S1_S1_S1_S1_S1_S1_S1_@Base 3.3.3-1
 _ZN10YTableItemC1Ev@Base 3.3.3-1
 _ZN10YTableItemC2ERKSsS1_S1_S1_S1_S1_S1_S1_S1_S1_@Base 3.3.3-1
 _ZN10YTableItemC2Ev@Base 3.3.3-1
 _ZN10YTableItemD0Ev@Base 3.3.3-1
 _ZN10YTableItemD1Ev@Base 3.3.3-1
 _ZN10YTableItemD2Ev@Base 3.3.3-1
 _ZN10YTimeFieldC1EP7YWidgetRKSs@Base 3.3.3-1
 _ZN10YTimeFieldC2EP7YWidgetRKSs@Base 3.3.3-1
 _ZN10YTimeFieldD0Ev@Base 3.3.3-1
 _ZN10YTimeFieldD1Ev@Base 3.3.3-1
 _ZN10YTimeFieldD2Ev@Base 3.3.3-1
 _ZN10YTransTextD1Ev@Base 3.3.3-1
 _ZN10YTransTextD2Ev@Base 3.3.3-1
 _ZN11YIconLoader10fileExistsESs@Base 3.3.3-1
 _ZN11YIconLoader15setIconBasePathESs@Base 3.3.3-1
 _ZN11YIconLoader17addIconSearchPathESs@Base 3.3.3-1
 _ZN11YIconLoader8findIconESs@Base 3.3.3-1
 _ZN11YIconLoaderC1Ev@Base 3.3.3-1
 _ZN11YIconLoaderC2Ev@Base 3.3.3-1
 _ZN11YIconLoaderD1Ev@Base 3.3.3-1
 _ZN11YIconLoaderD2Ev@Base 3.3.3-1
 _ZN11YInputField10validCharsEv@Base 3.3.3-1
 _ZN11YInputField11getPropertyERKSs@Base 3.3.3-1
 _ZN11YInputField11propertySetEv@Base 3.3.3-1
 _ZN11YInputField11setPropertyERKSsRK14YPropertyValue@Base 3.3.3-1
 _ZN11YInputField13saveUserInputEP14YMacroRecorder@Base 3.3.3-1
 _ZN11YInputField13setShrinkableEb@Base 3.3.3-1
 _ZN11YInputField13setValidCharsERKSs@Base 3.3.3-1
 _ZN11YInputField17setInputMaxLengthEi@Base 3.3.3-1
 _ZN11YInputField17setShortcutStringERKSs@Base 3.3.3-1
 _ZN11YInputField17userInputPropertyEv@Base 3.3.3-1
 _ZN11YInputField8setLabelERKSs@Base 3.3.3-1
 _ZN11YInputFieldC1EP7YWidgetRKSsb@Base 3.3.3-1
 _ZN11YInputFieldC2EP7YWidgetRKSsb@Base 3.3.3-1
 _ZN11YInputFieldD0Ev@Base 3.3.3-1
 _ZN11YInputFieldD1Ev@Base 3.3.3-1
 _ZN11YInputFieldD2Ev@Base 3.3.3-1
 _ZN11YMenuButton11getPropertyERKSs@Base 3.3.3-1
 _ZN11YMenuButton11propertySetEv@Base 3.3.3-1
 _ZN11YMenuButton11setPropertyERKSsRK14YPropertyValue@Base 3.3.3-1
 _ZN11YMenuButton12findMenuItemEi@Base 3.3.3-1
 _ZN11YMenuButton12findMenuItemEiN9__gnu_cxx17__normal_iteratorIPKP5YItemSt6vectorIS3_SaIS3_EEEES9_@Base 3.3.3-1
 _ZN11YMenuButton14deleteAllItemsEv@Base 3.3.3-1
 _ZN11YMenuButton17assignUniqueIndexEN9__gnu_cxx17__normal_iteratorIPP5YItemSt6vectorIS3_SaIS3_EEEES8_@Base 3.3.3-1
 _ZN11YMenuButton24resolveShortcutConflictsEv@Base 3.3.3-1
 _ZN11YMenuButton7addItemEP5YItem@Base 3.3.3-1
 _ZN11YMenuButton8addItemsERKSt6vectorIP5YItemSaIS2_EE@Base 3.3.3-1
 _ZN11YMenuButtonC1EP7YWidgetRKSs@Base 3.3.3-1
 _ZN11YMenuButtonC2EP7YWidgetRKSs@Base 3.3.3-1
 _ZN11YMenuButtonD0Ev@Base 3.3.3-1
 _ZN11YMenuButtonD1Ev@Base 3.3.3-1
 _ZN11YMenuButtonD2Ev@Base 3.3.3-1
 _ZN11YPushButton11getPropertyERKSs@Base 3.3.3-1
 _ZN11YPushButton11propertySetEv@Base 3.3.3-1
 _ZN11YPushButton11setPropertyERKSsRK14YPropertyValue@Base 3.3.3-1
 _ZN11YPushButton13setHelpButtonEb@Base 3.3.3-1
 _ZN11YPushButton14setFunctionKeyEi@Base 3.3.3-1
 _ZN11YPushButton16setDefaultButtonEb@Base 3.3.3-1
 _ZN11YPushButton17setRelNotesButtonEb@Base 3.3.3-1
 _ZN11YPushButton17setShortcutStringERKSs@Base 3.3.3-1
 _ZN11YPushButton7setIconERKSs@Base 3.3.3-1
 _ZN11YPushButton7setRoleE11YButtonRole@Base 3.3.3-1
 _ZN11YPushButton8setLabelERKSs@Base 3.3.3-1
 _ZN11YPushButtonC1EP7YWidgetRKSs@Base 3.3.3-1
 _ZN11YPushButtonC2EP7YWidgetRKSs@Base 3.3.3-1
 _ZN11YPushButtonD0Ev@Base 3.3.3-1
 _ZN11YPushButtonD1Ev@Base 3.3.3-1
 _ZN11YPushButtonD2Ev@Base 3.3.3-1
 _ZN11YStringTree12completePathEPK14SortedTreeItemI10YTransTextEbcb@Base 3.3.3-1
 _ZN11YStringTree4pathEPK14SortedTreeItemI10YTransTextEcb@Base 3.3.3-1
 _ZN11YStringTree7logTreeEv@Base 3.3.3-1
 _ZN11YStringTree9addBranchERKSscP14SortedTreeItemI10YTransTextE@Base 3.3.3-1
 _ZN11YStringTree9logBranchEP14SortedTreeItemI10YTransTextESs@Base 3.3.3-1
 _ZN11YStringTree9translateERKSs@Base 3.3.3-1
 _ZN11YStringTreeC1EPKc@Base 3.3.3-1
 _ZN11YStringTreeC2EPKc@Base 3.3.3-1
 _ZN11YStringTreeD0Ev@Base 3.3.3-1
 _ZN11YStringTreeD1Ev@Base 3.3.3-1
 _ZN11YStringTreeD2Ev@Base 3.3.3-1
 _ZN12YApplication10busyCursorEv@Base 3.3.3-1
 _ZN12YApplication10iconLoaderEv@Base 3.3.3-1
 _ZN12YApplication11deviceUnitsE12YUIDimensionf@Base 3.3.3-1
 _ZN12YApplication11layoutUnitsE12YUIDimensioni@Base 3.3.3-1
 _ZN12YApplication11setLanguageERKSsS1_@Base 3.3.3-1
 _ZN12YApplication12normalCursorEv@Base 3.3.3-1
 _ZN12YApplication12redrawScreenEv@Base 3.3.3-1
 _ZN12YApplication13runInTerminalERKSs@Base 3.3.3-1
 _ZN12YApplication14makeScreenShotERKSs@Base 3.3.3-1
 _ZN12YApplication14setConsoleFontERKSsS1_S1_S1_S1_@Base 3.3.3-1
 _ZN12YApplication14setProductNameERKSs@Base 3.3.3-1
 _ZN12YApplication15openContextMenuERKSt6vectorIP5YItemSaIS2_EE@Base 3.3.3-1
 _ZN12YApplication15setIconBasePathERKSs@Base 3.3.3-1
 _ZN12YApplication15setReleaseNotesERKSt3mapISsSsSt4lessISsESaISt4pairIKSsSsEEE@Base 3.3.3-1
 _ZN12YApplication16setReverseLayoutEb@Base 3.3.3-1
 _ZN12YApplication18setApplicationIconERKSs@Base 3.3.3-1
 _ZN12YApplication18setShowProductLogoEb@Base 3.3.3-1
 _ZN12YApplication19initConsoleKeyboardEv@Base 3.3.3-1
 _ZN12YApplication19setApplicationTitleERKSs@Base 3.3.3-1
 _ZN12YApplication21setDefaultFunctionKeyERKSsi@Base 3.3.3-1
 _ZN12YApplication22hasWizardDialogSupportEv@Base 3.3.3-1
 _ZN12YApplication24clearDefaultFunctionKeysEv@Base 3.3.3-1
 _ZN12YApplication4beepEv@Base 3.3.3-1
 _ZN12YApplication5glyphERKSs@Base 3.3.3-1
 _ZN12YApplication6openUIEv@Base 3.3.3-1
 _ZN12YApplication7closeUIEv@Base 3.3.3-1
 _ZN12YApplicationC1Ev@Base 3.3.3-1
 _ZN12YApplicationC2Ev@Base 3.3.3-1
 _ZN12YApplicationD0Ev@Base 3.3.3-1
 _ZN12YApplicationD1Ev@Base 3.3.3-1
 _ZN12YApplicationD2Ev@Base 3.3.3-1
 _ZN12YCommandLine3addERKSs@Base 3.3.3-1
 _ZN12YCommandLine6removeEi@Base 3.3.3-1
 _ZN12YCommandLine7replaceEiRKSs@Base 3.3.3-1
 _ZN12YCommandLineC1Ev@Base 3.3.3-1
 _ZN12YCommandLineC2Ev@Base 3.3.3-1
 _ZN12YCommandLineD1Ev@Base 3.3.3-1
 _ZN12YCommandLineD2Ev@Base 3.3.3-1
 _ZN12YContextMenu11getPropertyERKSs@Base 3.3.3-1
 _ZN12YContextMenu11propertySetEv@Base 3.3.3-1
 _ZN12YContextMenu11setPropertyERKSsRK14YPropertyValue@Base 3.3.3-1
 _ZN12YContextMenu12findMenuItemEi@Base 3.3.3-1
 _ZN12YContextMenu12findMenuItemEiN9__gnu_cxx17__normal_iteratorIPKP5YItemSt6vectorIS3_SaIS3_EEEES9_@Base 3.3.3-1
 _ZN12YContextMenu14deleteAllItemsEv@Base 3.3.3-1
 _ZN12YContextMenu17assignUniqueIndexEN9__gnu_cxx17__normal_iteratorIPP5YItemSt6vectorIS3_SaIS3_EEEES8_@Base 3.3.3-1
 _ZN12YContextMenu24resolveShortcutConflictsEv@Base 3.3.3-1
 _ZN12YContextMenu7addItemEP5YItem@Base 3.3.3-1
 _ZN12YContextMenu8addItemsERKSt6vectorIP5YItemSaIS2_EE@Base 3.3.3-1
 _ZN12YContextMenuC1Ev@Base 3.3.3-1
 _ZN12YContextMenuC2Ev@Base 3.3.3-1
 _ZN12YContextMenuD0Ev@Base 3.3.3-1
 _ZN12YContextMenuD1Ev@Base 3.3.3-1
 _ZN12YContextMenuD2Ev@Base 3.3.3-1
 _ZN12YEventFilterC1EP7YDialog@Base 3.3.3-1
 _ZN12YEventFilterC2EP7YDialog@Base 3.3.3-1
 _ZN12YEventFilterD0Ev@Base 3.3.3-1
 _ZN12YEventFilterD1Ev@Base 3.3.3-1
 _ZN12YEventFilterD2Ev@Base 3.3.3-1
 _ZN12YProgressBar11getPropertyERKSs@Base 3.3.3-1
 _ZN12YProgressBar11propertySetEv@Base 3.3.3-1
 _ZN12YProgressBar11setPropertyERKSsRK14YPropertyValue@Base 3.3.3-1
 _ZN12YProgressBar5labelEv@Base 3.3.3-1
 _ZN12YProgressBar8setLabelERKSs@Base 3.3.3-1
 _ZN12YProgressBar8setValueEi@Base 3.3.3-1
 _ZN12YProgressBarC1EP7YWidgetRKSsi@Base 3.3.3-1
 _ZN12YProgressBarC2EP7YWidgetRKSsi@Base 3.3.3-1
 _ZN12YProgressBarD0Ev@Base 3.3.3-1
 _ZN12YProgressBarD1Ev@Base 3.3.3-1
 _ZN12YProgressBarD2Ev@Base 3.3.3-1
 _ZN12YPropertySet3addERK9YProperty@Base 3.3.3-1
 _ZN12YPropertySet3addERKS_@Base 3.3.3-1
 _ZN12YPropertySetC1Ev@Base 3.3.3-1
 _ZN12YPropertySetC2Ev@Base 3.3.3-1
 _ZN12YPropertySetD1Ev@Base 3.3.3-1
 _ZN12YPropertySetD2Ev@Base 3.3.3-1
 _ZN12YRadioButton11buttonGroupEv@Base 3.3.3-1
 _ZN12YRadioButton11getPropertyERKSs@Base 3.3.3-1
 _ZN12YRadioButton11propertySetEv@Base 3.3.3-1
 _ZN12YRadioButton11setPropertyERKSsRK14YPropertyValue@Base 3.3.3-1
 _ZN12YRadioButton13saveUserInputEP14YMacroRecorder@Base 3.3.3-1
 _ZN12YRadioButton14setUseBoldFontEb@Base 3.3.3-1
 _ZN12YRadioButton17setShortcutStringERKSs@Base 3.3.3-1
 _ZN12YRadioButton17userInputPropertyEv@Base 3.3.3-1
 _ZN12YRadioButton8setLabelERKSs@Base 3.3.3-1
 _ZN12YRadioButtonC1EP7YWidgetRKSs@Base 3.3.3-1
 _ZN12YRadioButtonC2EP7YWidgetRKSs@Base 3.3.3-1
 _ZN12YRadioButtonD0Ev@Base 3.3.3-1
 _ZN12YRadioButtonD1Ev@Base 3.3.3-1
 _ZN12YRadioButtonD2Ev@Base 3.3.3-1
 _ZN12YTableHeader9addColumnERKSs14YAlignmentType@Base 3.3.3-1
 _ZN12YTableHeaderC1Ev@Base 3.3.3-1
 _ZN12YTableHeaderC2Ev@Base 3.3.3-1
 _ZN12YTableHeaderD0Ev@Base 3.3.3-1
 _ZN12YTableHeaderD1Ev@Base 3.3.3-1
 _ZN12YTableHeaderD2Ev@Base 3.3.3-1
 _ZN12YUIException3logERKS_RK13YCodeLocationPKc@Base 3.3.3-1
 _ZN12YUIException8strErrnoEi@Base 3.3.3-1
 _ZN12YUIException8strErrnoEiRKSs@Base 3.3.3-1
 _ZN12YUIExceptionC1ERKS_@Base 3.3.3-1
 _ZN12YUIExceptionC1ERKSs@Base 3.3.3-1
 _ZN12YUIExceptionC1Ev@Base 3.3.3-1
 _ZN12YUIExceptionC2ERKS_@Base 3.3.3-1
 _ZN12YUIExceptionC2ERKSs@Base 3.3.3-1
 _ZN12YUIExceptionC2Ev@Base 3.3.3-1
 _ZN12YUIExceptionD0Ev@Base 3.3.3-1
 _ZN12YUIExceptionD1Ev@Base 3.3.3-1
 _ZN12YUIExceptionD2Ev@Base 3.3.3-1
 _ZN12YUILogBuffer11writeBufferEPKcl@Base 3.3.3-1
 _ZN12YUILogBuffer5flushEv@Base 3.3.3-1
 _ZN12YUILogBuffer6xsputnEPKcl@Base 3.3.3-1
 _ZN12YUILogBuffer8overflowEi@Base 3.3.3-1
 _ZN12YUILogBufferD0Ev@Base 3.3.3-1
 _ZN12YUILogBufferD1Ev@Base 3.3.3-1
 _ZN12YUILogBufferD2Ev@Base 3.3.3-1
 _ZN12YWidgetEventC1EP7YWidgetN6YEvent11EventReasonENS2_9EventTypeE@Base 3.3.3-1
 _ZN12YWidgetEventC2EP7YWidgetN6YEvent11EventReasonENS2_9EventTypeE@Base 3.3.3-1
 _ZN12YWidgetEventD0Ev@Base 3.3.3-1
 _ZN12YWidgetEventD1Ev@Base 3.3.3-1
 _ZN12YWidgetEventD2Ev@Base 3.3.3-1
 _ZN13YCodeLocationC1ERKSsS1_i@Base 3.3.3-1
 _ZN13YCodeLocationC2ERKSsS1_i@Base 3.3.3-1
 _ZN13YCodeLocationD1Ev@Base 3.3.3-1
 _ZN13YCodeLocationD2Ev@Base 3.3.3-1
 _ZN13YCodeLocationaSERKS_@Base 3.3.3-1
 _ZN13YItemShortcut11setShortcutEc@Base 3.3.3-1
 _ZN13YItemShortcut17getShortcutStringEv@Base 3.3.3-1
 _ZN13YItemShortcutD0Ev@Base 3.3.3-1
 _ZN13YItemShortcutD1Ev@Base 3.3.3-1
 _ZN13YItemShortcutD2Ev@Base 3.3.3-1
 _ZN13YReplacePoint9showChildEv@Base 3.3.3-1
 _ZN13YReplacePointC1EP7YWidget@Base 3.3.3-1
 _ZN13YReplacePointC2EP7YWidget@Base 3.3.3-1
 _ZN13YReplacePointD0Ev@Base 3.3.3-1
 _ZN13YReplacePointD1Ev@Base 3.3.3-1
 _ZN13YReplacePointD2Ev@Base 3.3.3-1
 _ZN13YSelectionBox11getPropertyERKSs@Base 3.3.3-1
 _ZN13YSelectionBox11propertySetEv@Base 3.3.3-1
 _ZN13YSelectionBox11setPropertyERKSsRK14YPropertyValue@Base 3.3.3-1
 _ZN13YSelectionBox13setShrinkableEb@Base 3.3.3-1
 _ZN13YSelectionBox16setImmediateModeEb@Base 3.3.3-1
 _ZN13YSelectionBox17userInputPropertyEv@Base 3.3.3-1
 _ZN13YSelectionBoxC1EP7YWidgetRKSs@Base 3.3.3-1
 _ZN13YSelectionBoxC2EP7YWidgetRKSs@Base 3.3.3-1
 _ZN13YSelectionBoxD0Ev@Base 3.3.3-1
 _ZN13YSelectionBoxD1Ev@Base 3.3.3-1
 _ZN13YSelectionBoxD2Ev@Base 3.3.3-1
 _ZN14SortedTreeItemI10YTransTextE17insertChildSortedEPS1_@Base 3.3.3-1
 _ZN14SortedTreeItemI10YTransTextED0Ev@Base 3.3.3-1
 _ZN14SortedTreeItemI10YTransTextED1Ev@Base 3.3.3-1
 _ZN14SortedTreeItemI10YTransTextED2Ev@Base 3.3.3-1
 _ZN14YBusyIndicator10setTimeoutEi@Base 3.3.3-1
 _ZN14YBusyIndicator11getPropertyERKSs@Base 3.3.3-1
 _ZN14YBusyIndicator11propertySetEv@Base 3.3.3-1
 _ZN14YBusyIndicator11setPropertyERKSsRK14YPropertyValue@Base 3.3.3-1
 _ZN14YBusyIndicator5labelEv@Base 3.3.3-1
 _ZN14YBusyIndicator8setAliveEb@Base 3.3.3-1
 _ZN14YBusyIndicator8setLabelERKSs@Base 3.3.3-1
 _ZN14YBusyIndicatorC1EP7YWidgetRKSsib@Base 3.3.3-1
 _ZN14YBusyIndicatorC2EP7YWidgetRKSsib@Base 3.3.3-1
 _ZN14YBusyIndicatorD0Ev@Base 3.3.3-1
 _ZN14YBusyIndicatorD1Ev@Base 3.3.3-1
 _ZN14YBusyIndicatorD2Ev@Base 3.3.3-1
 _ZN14YCheckBoxFrame11getPropertyERKSs@Base 3.3.3-1
 _ZN14YCheckBoxFrame11propertySetEv@Base 3.3.3-1
 _ZN14YCheckBoxFrame11setPropertyERKSsRK14YPropertyValue@Base 3.3.3-1
 _ZN14YCheckBoxFrame13setAutoEnableEb@Base 3.3.3-1
 _ZN14YCheckBoxFrame17setShortcutStringERKSs@Base 3.3.3-1
 _ZN14YCheckBoxFrame17userInputPropertyEv@Base 3.3.3-1
 _ZN14YCheckBoxFrame19setInvertAutoEnableEb@Base 3.3.3-1
 _ZN14YCheckBoxFrame24handleChildrenEnablementEb@Base 3.3.3-1
 _ZN14YCheckBoxFrame8setLabelERKSs@Base 3.3.3-1
 _ZN14YCheckBoxFrameC1EP7YWidgetRKSsb@Base 3.3.3-1
 _ZN14YCheckBoxFrameC2EP7YWidgetRKSsb@Base 3.3.3-1
 _ZN14YCheckBoxFrameD0Ev@Base 3.3.3-1
 _ZN14YCheckBoxFrameD1Ev@Base 3.3.3-1
 _ZN14YCheckBoxFrameD2Ev@Base 3.3.3-1
 _ZN14YMultiLineEdit11getPropertyERKSs@Base 3.3.3-1
 _ZN14YMultiLineEdit11propertySetEv@Base 3.3.3-1
 _ZN14YMultiLineEdit11setPropertyERKSsRK14YPropertyValue@Base 3.3.3-1
 _ZN14YMultiLineEdit17setInputMaxLengthEi@Base 3.3.3-1
 _ZN14YMultiLineEdit17setShortcutStringERKSs@Base 3.3.3-1
 _ZN14YMultiLineEdit17userInputPropertyEv@Base 3.3.3-1
 _ZN14YMultiLineEdit22setDefaultVisibleLinesEi@Base 3.3.3-1
 _ZN14YMultiLineEdit8setLabelERKSs@Base 3.3.3-1
 _ZN14YMultiLineEditC1EP7YWidgetRKSs@Base 3.3.3-1
 _ZN14YMultiLineEditC2EP7YWidgetRKSs@Base 3.3.3-1
 _ZN14YMultiLineEditD0Ev@Base 3.3.3-1
 _ZN14YMultiLineEditD1Ev@Base 3.3.3-1
 _ZN14YMultiLineEditD2Ev@Base 3.3.3-1
 _ZN14YPopupInternal15editStringArrayERSt6vectorISsSaISsEERKSs@Base 3.3.3-1
 _ZN14YPopupInternal18editNewStringArrayERKSs@Base 3.3.3-1
 _ZN14YPopupInternal7messageERKSs@Base 3.3.3-1
 _ZN14YPropertyValueD1Ev@Base 3.3.3-1
 _ZN14YPropertyValueD2Ev@Base 3.3.3-1
 _ZN14YRpmGroupsTree20addFallbackRpmGroupsEv@Base 3.3.3-1
 _ZN14YRpmGroupsTreeC1Ev@Base 3.3.3-1
 _ZN14YRpmGroupsTreeC2Ev@Base 3.3.3-1
 _ZN14YRpmGroupsTreeD0Ev@Base 3.3.3-1
 _ZN14YRpmGroupsTreeD1Ev@Base 3.3.3-1
 _ZN14YRpmGroupsTreeD2Ev@Base 3.3.3-1
 _ZN14YWidgetFactory10createHBoxEP7YWidget@Base 3.3.3-1
 _ZN14YWidgetFactory10createLeftEP7YWidget@Base 3.3.3-1
 _ZN14YWidgetFactory10createVBoxEP7YWidget@Base 3.3.3-1
 _ZN14YWidgetFactory11createRightEP7YWidget@Base 3.3.3-1
 _ZN14YWidgetFactory12createBottomEP7YWidget@Base 3.3.3-1
 _ZN14YWidgetFactory13createHCenterEP7YWidget@Base 3.3.3-1
 _ZN14YWidgetFactory13createHSquashEP7YWidget@Base 3.3.3-1
 _ZN14YWidgetFactory13createHeadingEP7YWidgetRKSs@Base 3.3.3-1
 _ZN14YWidgetFactory13createMinSizeEP7YWidgetdd@Base 3.3.3-1
 _ZN14YWidgetFactory13createVCenterEP7YWidget@Base 3.3.3-1
 _ZN14YWidgetFactory13createVSquashEP7YWidget@Base 3.3.3-1
 _ZN14YWidgetFactory14createHSpacingEP7YWidgetd@Base 3.3.3-1
 _ZN14YWidgetFactory14createHStretchEP7YWidget@Base 3.3.3-1
 _ZN14YWidgetFactory14createHVCenterEP7YWidget@Base 3.3.3-1
 _ZN14YWidgetFactory14createHVSquashEP7YWidget@Base 3.3.3-1
 _ZN14YWidgetFactory14createMinWidthEP7YWidgetd@Base 3.3.3-1
 _ZN14YWidgetFactory14createVSpacingEP7YWidgetd@Base 3.3.3-1
 _ZN14YWidgetFactory14createVStretchEP7YWidget@Base 3.3.3-1
 _ZN14YWidgetFactory15createMarginBoxEP7YWidgetdd@Base 3.3.3-1
 _ZN14YWidgetFactory15createMarginBoxEP7YWidgetdddd@Base 3.3.3-1
 _ZN14YWidgetFactory15createMinHeightEP7YWidgetd@Base 3.3.3-1
 _ZN14YWidgetFactory16createIconButtonEP7YWidgetRKSsS3_@Base 3.3.3-1
 _ZN14YWidgetFactory16createMainDialogE16YDialogColorMode@Base 3.3.3-1
 _ZN14YWidgetFactory17createOutputFieldEP7YWidgetRKSs@Base 3.3.3-1
 _ZN14YWidgetFactory17createPopupDialogE16YDialogColorMode@Base 3.3.3-1
 _ZN14YWidgetFactory19createPasswordFieldEP7YWidgetRKSs@Base 3.3.3-1
 _ZN14YWidgetFactory9createTopEP7YWidget@Base 3.3.3-1
 _ZN14YWidgetFactoryC1Ev@Base 3.3.3-1
 _ZN14YWidgetFactoryC2Ev@Base 3.3.3-1
 _ZN14YWidgetFactoryD0Ev@Base 3.3.3-1
 _ZN14YWidgetFactoryD1Ev@Base 3.3.3-1
 _ZN14YWidgetFactoryD2Ev@Base 3.3.3-1
 _ZN15YPropertyEditor4editERKSs@Base 3.3.3-1
 _ZN15YPropertyEditorC1EP7YWidget@Base 3.3.3-1
 _ZN15YPropertyEditorC2EP7YWidget@Base 3.3.3-1
 _ZN15YPropertyEditorD0Ev@Base 3.3.3-1
 _ZN15YPropertyEditorD1Ev@Base 3.3.3-1
 _ZN15YPropertyEditorD2Ev@Base 3.3.3-1
 _ZN15YStringWidgetIDC1ERKSs@Base 3.3.3-1
 _ZN15YStringWidgetIDC2ERKSs@Base 3.3.3-1
 _ZN15YStringWidgetIDD0Ev@Base 3.3.3-1
 _ZN15YStringWidgetIDD1Ev@Base 3.3.3-1
 _ZN15YStringWidgetIDD2Ev@Base 3.3.3-1
 _ZN15YWidgetTreeItem14setWidgetLabelEv@Base 3.3.3-1
 _ZN15YWidgetTreeItemD0Ev@Base 3.3.3-1
 _ZN15YWidgetTreeItemD1Ev@Base 3.3.3-1
 _ZN15YWidgetTreeItemD2Ev@Base 3.3.3-1
 _ZN16YChildrenManagerI7YWidgetE3addEPS0_@Base 3.3.3-1
 _ZN16YChildrenManagerI7YWidgetE5clearEv@Base 3.3.3-1
 _ZN16YChildrenManagerI7YWidgetE6removeEPS0_@Base 3.3.3-1
 _ZN16YChildrenManagerI7YWidgetED0Ev@Base 3.3.3-1
 _ZN16YChildrenManagerI7YWidgetED1Ev@Base 3.3.3-1
 _ZN16YChildrenManagerI7YWidgetED2Ev@Base 3.3.3-1
 _ZN16YExternalWidgets15externalWidgetsERKSs@Base 3.3.3-1
 _ZN16YExternalWidgets16_externalWidgetsE@Base 3.3.3-1
 _ZN16YExternalWidgets21externalWidgetFactoryERKSs@Base 3.3.3-1
 _ZN16YExternalWidgets21externalWidgetFactoryEv@Base 3.3.3-1
 _ZN16YExternalWidgetsC1ERKSs@Base 3.3.3-1
 _ZN16YExternalWidgetsC2ERKSs@Base 3.3.3-1
 _ZN16YExternalWidgetsD0Ev@Base 3.3.3-1
 _ZN16YExternalWidgetsD1Ev@Base 3.3.3-1
 _ZN16YExternalWidgetsD2Ev@Base 3.3.3-1
 _ZN16YPackageSelectorC1EP7YWidgetl@Base 3.3.3-1
 _ZN16YPackageSelectorC2EP7YWidgetl@Base 3.3.3-1
 _ZN16YPackageSelectorD0Ev@Base 3.3.3-1
 _ZN16YPackageSelectorD1Ev@Base 3.3.3-1
 _ZN16YPackageSelectorD2Ev@Base 3.3.3-1
 _ZN16YSelectionWidget10itemsBeginEv@Base 3.3.3-1
 _ZN16YSelectionWidget10selectItemEP5YItemb@Base 3.3.3-1
 _ZN16YSelectionWidget12selectedItemEv@Base 3.3.3-1
 _ZN16YSelectionWidget13selectedItemsEv@Base 3.3.3-1
 _ZN16YSelectionWidget14deleteAllItemsEv@Base 3.3.3-1
 _ZN16YSelectionWidget15hasSelectedItemEv@Base 3.3.3-1
 _ZN16YSelectionWidget15setIconBasePathERKSs@Base 3.3.3-1
 _ZN16YSelectionWidget16deselectAllItemsEN9__gnu_cxx17__normal_iteratorIPP5YItemSt6vectorIS3_SaIS3_EEEES8_@Base 3.3.3-1
 _ZN16YSelectionWidget16deselectAllItemsEv@Base 3.3.3-1
 _ZN16YSelectionWidget16findSelectedItemEN9__gnu_cxx17__normal_iteratorIPKP5YItemSt6vectorIS3_SaIS3_EEEES9_@Base 3.3.3-1
 _ZN16YSelectionWidget17findSelectedItemsERSt6vectorIP5YItemSaIS2_EEN9__gnu_cxx17__normal_iteratorIPKS2_S4_EESA_@Base 3.3.3-1
 _ZN16YSelectionWidget17setShortcutStringERKSs@Base 3.3.3-1
 _ZN16YSelectionWidget25setEnforceSingleSelectionEb@Base 3.3.3-1
 _ZN16YSelectionWidget7addItemEP5YItem@Base 3.3.3-1
 _ZN16YSelectionWidget7addItemERKSsS1_b@Base 3.3.3-1
 _ZN16YSelectionWidget7addItemERKSsb@Base 3.3.3-1
 _ZN16YSelectionWidget8addItemsERKSt6vectorIP5YItemSaIS2_EE@Base 3.3.3-1
 _ZN16YSelectionWidget8itemsEndEv@Base 3.3.3-1
 _ZN16YSelectionWidget8setLabelERKSs@Base 3.3.3-1
 _ZN16YSelectionWidgetC1EP7YWidgetRKSsbb@Base 3.3.3-1
 _ZN16YSelectionWidgetC2EP7YWidgetRKSsbb@Base 3.3.3-1
 _ZN16YSelectionWidgetD0Ev@Base 3.3.3-1
 _ZN16YSelectionWidgetD1Ev@Base 3.3.3-1
 _ZN16YSelectionWidgetD2Ev@Base 3.3.3-1
 _ZN16YShortcutManager14checkShortcutsEb@Base 3.3.3-1
 _ZN16YShortcutManager15resolveConflictEP9YShortcut@Base 3.3.3-1
 _ZN16YShortcutManager17clearShortcutListEv@Base 3.3.3-1
 _ZN16YShortcutManager18findShortestWidgetERKSt6vectorIP9YShortcutSaIS2_EE@Base 3.3.3-1
 _ZN16YShortcutManager19findShortcutWidgetsESt20_List_const_iteratorIP7YWidgetES3_@Base 3.3.3-1
 _ZN16YShortcutManager19resolveAllConflictsEv@Base 3.3.3-1
 _ZN16YShortcutManager24findShortestWizardButtonERKSt6vectorIP9YShortcutSaIS2_EE@Base 3.3.3-1
 _ZN16YShortcutManagerC1EP7YDialog@Base 3.3.3-1
 _ZN16YShortcutManagerC2EP7YDialog@Base 3.3.3-1
 _ZN16YShortcutManagerD0Ev@Base 3.3.3-1
 _ZN16YShortcutManagerD1Ev@Base 3.3.3-1
 _ZN16YShortcutManagerD2Ev@Base 3.3.3-1
 _ZN17YChildrenRejectorI7YWidgetE3addEPS0_@Base 3.3.3-1
 _ZN17YChildrenRejectorI7YWidgetED0Ev@Base 3.3.3-1
 _ZN17YChildrenRejectorI7YWidgetED1Ev@Base 3.3.3-1
 _ZN17YChildrenRejectorI7YWidgetED2Ev@Base 3.3.3-1
 _ZN17YDialogSpyPrivate10editWidgetEP7YWidgetRKSs@Base 3.3.3-1
 _ZN17YDialogSpyPrivate12deleteWidgetEv@Base 3.3.3-1
 _ZN17YDialogSpyPrivate12editPropertyEv@Base 3.3.3-1
 _ZN17YDialogSpyPrivate12moveSelectedENS_9DirectionE@Base 3.3.3-1
 _ZN17YDialogSpyPrivate14hidePropertiesEv@Base 3.3.3-1
 _ZN17YDialogSpyPrivate14selectedWidgetEv@Base 3.3.3-1
 _ZN17YDialogSpyPrivate14showPropertiesEv@Base 3.3.3-1
 _ZN17YDialogSpyPrivate15highlightWidgetEb@Base 3.3.3-1
 _ZN17YDialogSpyPrivate16togglePropertiesEv@Base 3.3.3-1
 _ZN17YDialogSpyPrivate17refreshPropertiesEv@Base 3.3.3-1
 _ZN17YDialogSpyPrivate19refreshButtonStatesEv@Base 3.3.3-1
 _ZN17YDialogSpyPrivate19targetDialogUpdatedEv@Base 3.3.3-1
 _ZN17YDialogSpyPrivate21selectedWidgetChangedEv@Base 3.3.3-1
 _ZN17YDialogSpyPrivate9addWidgetERKSs@Base 3.3.3-1
 _ZN17YDialogSpyPrivateD1Ev@Base 3.3.3-1
 _ZN17YDialogSpyPrivateD2Ev@Base 3.3.3-1
 _ZN17YDownloadProgress11getPropertyERKSs@Base 3.3.3-1
 _ZN17YDownloadProgress11propertySetEv@Base 3.3.3-1
 _ZN17YDownloadProgress11setFilenameERKSs@Base 3.3.3-1
 _ZN17YDownloadProgress11setPropertyERKSsRK14YPropertyValue@Base 3.3.3-1
 _ZN17YDownloadProgress15setExpectedSizeEx@Base 3.3.3-1
 _ZN17YDownloadProgress8setLabelERKSs@Base 3.3.3-1
 _ZN17YDownloadProgressC1EP7YWidgetRKSsS3_x@Base 3.3.3-1
 _ZN17YDownloadProgressC2EP7YWidgetRKSsS3_x@Base 3.3.3-1
 _ZN17YDownloadProgressD0Ev@Base 3.3.3-1
 _ZN17YDownloadProgressD1Ev@Base 3.3.3-1
 _ZN17YDownloadProgressD2Ev@Base 3.3.3-1
 _ZN17YRadioButtonGroup11getPropertyERKSs@Base 3.3.3-1
 _ZN17YRadioButtonGroup11propertySetEv@Base 3.3.3-1
 _ZN17YRadioButtonGroup11setPropertyERKSsRK14YPropertyValue@Base 3.3.3-1
 _ZN17YRadioButtonGroup14addRadioButtonEP12YRadioButton@Base 3.3.3-1
 _ZN17YRadioButtonGroup17removeRadioButtonEP12YRadioButton@Base 3.3.3-1
 _ZN17YRadioButtonGroup19uncheckOtherButtonsEP12YRadioButton@Base 3.3.3-1
 _ZN17YRadioButtonGroupC1EP7YWidget@Base 3.3.3-1
 _ZN17YRadioButtonGroupC2EP7YWidget@Base 3.3.3-1
 _ZN17YRadioButtonGroupD0Ev@Base 3.3.3-1
 _ZN17YRadioButtonGroupD1Ev@Base 3.3.3-1
 _ZN17YRadioButtonGroupD2Ev@Base 3.3.3-1
 _ZN17YSimpleInputField11getPropertyERKSs@Base 3.3.3-1
 _ZN17YSimpleInputField11propertySetEv@Base 3.3.3-1
 _ZN17YSimpleInputField11setPropertyERKSsRK14YPropertyValue@Base 3.3.3-1
 _ZN17YSimpleInputField17setShortcutStringERKSs@Base 3.3.3-1
 _ZN17YSimpleInputField17userInputPropertyEv@Base 3.3.3-1
 _ZN17YSimpleInputField8setLabelERKSs@Base 3.3.3-1
 _ZN17YSimpleInputFieldC1EP7YWidgetRKSs@Base 3.3.3-1
 _ZN17YSimpleInputFieldC2EP7YWidgetRKSs@Base 3.3.3-1
 _ZN17YSimpleInputFieldD0Ev@Base 3.3.3-1
 _ZN17YSimpleInputFieldD1Ev@Base 3.3.3-1
 _ZN17YSimpleInputFieldD2Ev@Base 3.3.3-1
 _ZN17YTimezoneSelector11getPropertyERKSs@Base 3.3.3-1
 _ZN17YTimezoneSelector11propertySetEv@Base 3.3.3-1
 _ZN17YTimezoneSelector11setPropertyERKSsRK14YPropertyValue@Base 3.3.3-1
 _ZN17YTimezoneSelectorC1EP7YWidgetRKSsRKSt3mapISsSsSt4lessISsESaISt4pairIS2_SsEEE@Base 3.3.3-1
 _ZN17YTimezoneSelectorC2EP7YWidgetRKSsRKSt3mapISsSsSt4lessISsESaISt4pairIS2_SsEEE@Base 3.3.3-1
 _ZN17YTimezoneSelectorD0Ev@Base 3.3.3-1
 _ZN17YTimezoneSelectorD1Ev@Base 3.3.3-1
 _ZN17YTimezoneSelectorD2Ev@Base 3.3.3-1
 _ZN18YHelpButtonHandler6filterEP6YEvent@Base 3.3.3-1
 _ZN18YHelpButtonHandlerD0Ev@Base 3.3.3-1
 _ZN18YHelpButtonHandlerD1Ev@Base 3.3.3-1
 _ZN18YHelpButtonHandlerD2Ev@Base 3.3.3-1
 _ZN18YMultiSelectionBox11getPropertyERKSs@Base 3.3.3-1
 _ZN18YMultiSelectionBox11propertySetEv@Base 3.3.3-1
 _ZN18YMultiSelectionBox11setPropertyERKSsRK14YPropertyValue@Base 3.3.3-1
 _ZN18YMultiSelectionBox13saveUserInputEP14YMacroRecorder@Base 3.3.3-1
 _ZN18YMultiSelectionBox13setShrinkableEb@Base 3.3.3-1
 _ZN18YMultiSelectionBox17userInputPropertyEv@Base 3.3.3-1
 _ZN18YMultiSelectionBoxC1EP7YWidgetRKSs@Base 3.3.3-1
 _ZN18YMultiSelectionBoxC2EP7YWidgetRKSs@Base 3.3.3-1
 _ZN18YMultiSelectionBoxD0Ev@Base 3.3.3-1
 _ZN18YMultiSelectionBoxD1Ev@Base 3.3.3-1
 _ZN18YMultiSelectionBoxD2Ev@Base 3.3.3-1
 _ZN18YPartitionSplitter11getPropertyERKSs@Base 3.3.3-1
 _ZN18YPartitionSplitter11propertySetEv@Base 3.3.3-1
 _ZN18YPartitionSplitter11setPropertyERKSsRK14YPropertyValue@Base 3.3.3-1
 _ZN18YPartitionSplitter17userInputPropertyEv@Base 3.3.3-1
 _ZN18YPartitionSplitterC1EP7YWidgetiiiiiRKSsS3_S3_S3_S3_@Base 3.3.3-1
 _ZN18YPartitionSplitterC2EP7YWidgetiiiiiRKSsS3_S3_S3_S3_@Base 3.3.3-1
 _ZN18YPartitionSplitterD0Ev@Base 3.3.3-1
 _ZN18YPartitionSplitterD1Ev@Base 3.3.3-1
 _ZN18YPartitionSplitterD2Ev@Base 3.3.3-1
 _ZN18YUIPluginExceptionC1ERKSs@Base 3.3.3-1
 _ZN18YUIPluginExceptionC2ERKSs@Base 3.3.3-1
 _ZN18YUIPluginExceptionD0Ev@Base 3.3.3-1
 _ZN18YUIPluginExceptionD1Ev@Base 3.3.3-1
 _ZN18YUIPluginExceptionD2Ev@Base 3.3.3-1
 _ZN19YMultiProgressMeter11getPropertyERKSs@Base 3.3.3-1
 _ZN19YMultiProgressMeter11propertySetEv@Base 3.3.3-1
 _ZN19YMultiProgressMeter11setPropertyERKSsRK14YPropertyValue@Base 3.3.3-1
 _ZN19YMultiProgressMeter15setCurrentValueEif@Base 3.3.3-1
 _ZN19YMultiProgressMeter16setCurrentValuesERKSt6vectorIfSaIfEE@Base 3.3.3-1
 _ZN19YMultiProgressMeterC1EP7YWidget12YUIDimensionRKSt6vectorIfSaIfEE@Base 3.3.3-1
 _ZN19YMultiProgressMeterC2EP7YWidget12YUIDimensionRKSt6vectorIfSaIfEE@Base 3.3.3-1
 _ZN19YMultiProgressMeterD0Ev@Base 3.3.3-1
 _ZN19YMultiProgressMeterD1Ev@Base 3.3.3-1
 _ZN19YMultiProgressMeterD2Ev@Base 3.3.3-1
 _ZN19YPropertyEditorPriv10isReadOnlyERKSs@Base 3.3.3-1
 _ZN19YPropertyEditorPriv13refreshDialogEv@Base 3.3.3-1
 _ZN19YPropertyEditorPriv3runERKSs@Base 3.3.3-1
 _ZN19YPropertyEditorPriv4editERKSs@Base 3.3.3-1
 _ZN19YPropertyEditorPriv4showERKSs@Base 3.3.3-1
 _ZN19YPropertyEditorPriv5closeEv@Base 3.3.3-1
 _ZN19YPropertyEditorPriv8editableERKSs@Base 3.3.3-1
 _ZN19YSimpleEventHandler11blockEventsEb@Base 3.3.3-1
 _ZN19YSimpleEventHandler11deleteEventEP6YEvent@Base 3.3.3-1
 _ZN19YSimpleEventHandler19consumePendingEventEv@Base 3.3.3-1
 _ZN19YSimpleEventHandler22deletePendingEventsForEP7YWidget@Base 3.3.3-1
 _ZN19YSimpleEventHandler5clearEv@Base 3.3.3-1
 _ZN19YSimpleEventHandler9sendEventEP6YEvent@Base 3.3.3-1
 _ZN19YSimpleEventHandlerC1Ev@Base 3.3.3-1
 _ZN19YSimpleEventHandlerC2Ev@Base 3.3.3-1
 _ZN19YSimpleEventHandlerD0Ev@Base 3.3.3-1
 _ZN19YSimpleEventHandlerD1Ev@Base 3.3.3-1
 _ZN19YSimpleEventHandlerD2Ev@Base 3.3.3-1
 _ZN19YSingleChildManagerI7YWidgetE3addEPS0_@Base 3.3.3-1
 _ZN19YSingleChildManagerI7YWidgetED0Ev@Base 3.3.3-1
 _ZN19YSingleChildManagerI7YWidgetED1Ev@Base 3.3.3-1
 _ZN19YSingleChildManagerI7YWidgetED2Ev@Base 3.3.3-1
 _ZN20YBarGraphMultiUpdateC1EP9YBarGraph@Base 3.3.3-1
 _ZN20YBarGraphMultiUpdateC2EP9YBarGraph@Base 3.3.3-1
 _ZN20YBarGraphMultiUpdateD1Ev@Base 3.3.3-1
 _ZN20YBarGraphMultiUpdateD2Ev@Base 3.3.3-1
 _ZN20YUINoDialogExceptionC1Ev@Base 3.3.3-1
 _ZN20YUINoDialogExceptionC2Ev@Base 3.3.3-1
 _ZN20YUINoDialogExceptionD0Ev@Base 3.3.3-1
 _ZN20YUINoDialogExceptionD1Ev@Base 3.3.3-1
 _ZN20YUINoDialogExceptionD2Ev@Base 3.3.3-1
 _ZN20YUIPropertyExceptionC1ERK9YPropertyP7YWidget@Base 3.3.3-1
 _ZN20YUIPropertyExceptionC1ERKS_@Base 3.3.3-1
 _ZN20YUIPropertyExceptionC2ERK9YPropertyP7YWidget@Base 3.3.3-1
 _ZN20YUIPropertyExceptionC2ERKS_@Base 3.3.3-1
 _ZN20YUIPropertyExceptionD0Ev@Base 3.3.3-1
 _ZN20YUIPropertyExceptionD1Ev@Base 3.3.3-1
 _ZN20YUIPropertyExceptionD2Ev@Base 3.3.3-1
 _ZN22YOptionalWidgetFactory10hasDumbTabEv@Base 3.3.3-1
 _ZN22YOptionalWidgetFactory11createGraphEP7YWidgetPv@Base 3.3.3-1
 _ZN22YOptionalWidgetFactory11createGraphEP7YWidgetRKSsS3_@Base 3.3.3-1
 _ZN22YOptionalWidgetFactory11hasBarGraphEv@Base 3.3.3-1
 _ZN22YOptionalWidgetFactory12createSliderEP7YWidgetRKSsiii@Base 3.3.3-1
 _ZN22YOptionalWidgetFactory12createWizardEP7YWidgetRKSsS3_S3_11YWizardMode@Base 3.3.3-1
 _ZN22YOptionalWidgetFactory12hasDateFieldEv@Base 3.3.3-1
 _ZN22YOptionalWidgetFactory12hasTimeFieldEv@Base 3.3.3-1
 _ZN22YOptionalWidgetFactory13createDumbTabEP7YWidget@Base 3.3.3-1
 _ZN22YOptionalWidgetFactory14createBarGraphEP7YWidget@Base 3.3.3-1
 _ZN22YOptionalWidgetFactory14hasContextMenuEv@Base 3.3.3-1
 _ZN22YOptionalWidgetFactory15createDateFieldEP7YWidgetRKSs@Base 3.3.3-1
 _ZN22YOptionalWidgetFactory15createTimeFieldEP7YWidgetRKSs@Base 3.3.3-1
 _ZN22YOptionalWidgetFactory18hasPatternSelectorEv@Base 3.3.3-1
 _ZN22YOptionalWidgetFactory19hasDownloadProgressEv@Base 3.3.3-1
 _ZN22YOptionalWidgetFactory19hasTimezoneSelectorEv@Base 3.3.3-1
 _ZN22YOptionalWidgetFactory20hasPartitionSplitterEv@Base 3.3.3-1
 _ZN22YOptionalWidgetFactory21createPatternSelectorEP7YWidgetl@Base 3.3.3-1
 _ZN22YOptionalWidgetFactory21hasDummySpecialWidgetEv@Base 3.3.3-1
 _ZN22YOptionalWidgetFactory21hasMultiProgressMeterEv@Base 3.3.3-1
 _ZN22YOptionalWidgetFactory22createDownloadProgressEP7YWidgetRKSsS3_x@Base 3.3.3-1
 _ZN22YOptionalWidgetFactory22createTimezoneSelectorEP7YWidgetRKSsRKSt3mapISsSsSt4lessISsESaISt4pairIS2_SsEEE@Base 3.3.3-1
 _ZN22YOptionalWidgetFactory22hasSimplePatchSelectorEv@Base 3.3.3-1
 _ZN22YOptionalWidgetFactory23createPartitionSplitterEP7YWidgetiiiiiRKSsS3_S3_S3_S3_@Base 3.3.3-1
 _ZN22YOptionalWidgetFactory24createDummySpecialWidgetEP7YWidget@Base 3.3.3-1
 _ZN22YOptionalWidgetFactory24createMultiProgressMeterEP7YWidget12YUIDimensionRKSt6vectorIfSaIfEE@Base 3.3.3-1
 _ZN22YOptionalWidgetFactory25createHMultiProgressMeterEP7YWidgetRKSt6vectorIfSaIfEE@Base 3.3.3-1
 _ZN22YOptionalWidgetFactory25createSimplePatchSelectorEP7YWidgetl@Base 3.3.3-1
 _ZN22YOptionalWidgetFactory25createVMultiProgressMeterEP7YWidgetRKSt6vectorIfSaIfEE@Base 3.3.3-1
 _ZN22YOptionalWidgetFactory8hasGraphEv@Base 3.3.3-1
 _ZN22YOptionalWidgetFactory9hasSliderEv@Base 3.3.3-1
 _ZN22YOptionalWidgetFactory9hasWizardEv@Base 3.3.3-1
 _ZN22YOptionalWidgetFactoryC1Ev@Base 3.3.3-1
 _ZN22YOptionalWidgetFactoryC2Ev@Base 3.3.3-1
 _ZN22YOptionalWidgetFactoryD0Ev@Base 3.3.3-1
 _ZN22YOptionalWidgetFactoryD1Ev@Base 3.3.3-1
 _ZN22YOptionalWidgetFactoryD2Ev@Base 3.3.3-1
 _ZN22YRelNotesButtonHandler6filterEP6YEvent@Base 3.3.3-1
 _ZN22YRelNotesButtonHandlerD0Ev@Base 3.3.3-1
 _ZN22YRelNotesButtonHandlerD1Ev@Base 3.3.3-1
 _ZN22YRelNotesButtonHandlerD2Ev@Base 3.3.3-1
 _ZN23YUINullPointerExceptionC1Ev@Base 3.3.3-1
 _ZN23YUINullPointerExceptionC2Ev@Base 3.3.3-1
 _ZN23YUINullPointerExceptionD0Ev@Base 3.3.3-1
 _ZN23YUINullPointerExceptionD1Ev@Base 3.3.3-1
 _ZN23YUINullPointerExceptionD2Ev@Base 3.3.3-1
 _ZN23YUIOutOfMemoryExceptionC1Ev@Base 3.3.3-1
 _ZN23YUIOutOfMemoryExceptionC2Ev@Base 3.3.3-1
 _ZN23YUIOutOfMemoryExceptionD0Ev@Base 3.3.3-1
 _ZN23YUIOutOfMemoryExceptionD1Ev@Base 3.3.3-1
 _ZN23YUIOutOfMemoryExceptionD2Ev@Base 3.3.3-1
 _ZN24YUIInvalidChildExceptionI7YWidgetED0Ev@Base 3.3.3-1
 _ZN24YUIInvalidChildExceptionI7YWidgetED1Ev@Base 3.3.3-1
 _ZN24YUIInvalidChildExceptionI7YWidgetED2Ev@Base 3.3.3-1
 _ZN25YUICantLoadAnyUIExceptionC1Ev@Base 3.3.3-1
 _ZN25YUICantLoadAnyUIExceptionC2Ev@Base 3.3.3-1
 _ZN25YUICantLoadAnyUIExceptionD0Ev@Base 3.3.3-1
 _ZN25YUICantLoadAnyUIExceptionD1Ev@Base 3.3.3-1
 _ZN25YUICantLoadAnyUIExceptionD2Ev@Base 3.3.3-1
 _ZN25YUIInvalidWidgetExceptionC1Ev@Base 3.3.3-1
 _ZN25YUIInvalidWidgetExceptionC2Ev@Base 3.3.3-1
 _ZN25YUIInvalidWidgetExceptionD0Ev@Base 3.3.3-1
 _ZN25YUIInvalidWidgetExceptionD1Ev@Base 3.3.3-1
 _ZN25YUIInvalidWidgetExceptionD2Ev@Base 3.3.3-1
 _ZN26YExternalWidgetsTerminatorD1Ev@Base 3.3.3-1
 _ZN26YExternalWidgetsTerminatorD2Ev@Base 3.3.3-1
 _ZN26YUIBadPropertyArgExceptionD0Ev@Base 3.3.3-1
 _ZN26YUIBadPropertyArgExceptionD1Ev@Base 3.3.3-1
 _ZN26YUIBadPropertyArgExceptionD2Ev@Base 3.3.3-1
 _ZN26YUIWidgetNotFoundExceptionC1ERKSs@Base 3.3.3-1
 _ZN26YUIWidgetNotFoundExceptionC2ERKSs@Base 3.3.3-1
 _ZN26YUIWidgetNotFoundExceptionD0Ev@Base 3.3.3-1
 _ZN26YUIWidgetNotFoundExceptionD1Ev@Base 3.3.3-1
 _ZN26YUIWidgetNotFoundExceptionD2Ev@Base 3.3.3-1
 _ZN27YSingleChildContainerWidget14preferredWidthEv@Base 3.3.3-1
 _ZN27YSingleChildContainerWidget15preferredHeightEv@Base 3.3.3-1
 _ZN27YSingleChildContainerWidget7setSizeEii@Base 3.3.3-1
 _ZN27YSingleChildContainerWidgetC1EP7YWidget@Base 3.3.3-1
 _ZN27YSingleChildContainerWidgetC2EP7YWidget@Base 3.3.3-1
 _ZN27YSingleChildContainerWidgetD0Ev@Base 3.3.3-1
 _ZN27YSingleChildContainerWidgetD1Ev@Base 3.3.3-1
 _ZN27YSingleChildContainerWidgetD2Ev@Base 3.3.3-1
 _ZN27YUIIndexOutOfRangeExceptionD0Ev@Base 3.3.3-1
 _ZN27YUIIndexOutOfRangeExceptionD1Ev@Base 3.3.3-1
 _ZN27YUIIndexOutOfRangeExceptionD2Ev@Base 3.3.3-1
 _ZN27YUITooManyChildrenExceptionI7YWidgetED0Ev@Base 3.3.3-1
 _ZN27YUITooManyChildrenExceptionI7YWidgetED1Ev@Base 3.3.3-1
 _ZN27YUITooManyChildrenExceptionI7YWidgetED2Ev@Base 3.3.3-1
 _ZN27YUIUnknownPropertyExceptionC1ERKSsP7YWidget@Base 3.3.3-1
 _ZN27YUIUnknownPropertyExceptionC2ERKSsP7YWidget@Base 3.3.3-1
 _ZN27YUIUnknownPropertyExceptionD0Ev@Base 3.3.3-1
 _ZN27YUIUnknownPropertyExceptionD1Ev@Base 3.3.3-1
 _ZN27YUIUnknownPropertyExceptionD2Ev@Base 3.3.3-1
 _ZN28YUIInvalidDimensionExceptionD0Ev@Base 3.3.3-1
 _ZN28YUIInvalidDimensionExceptionD1Ev@Base 3.3.3-1
 _ZN28YUIInvalidDimensionExceptionD2Ev@Base 3.3.3-1
 _ZN29YUIUnsupportedWidgetExceptionD0Ev@Base 3.3.3-1
 _ZN29YUIUnsupportedWidgetExceptionD1Ev@Base 3.3.3-1
 _ZN29YUIUnsupportedWidgetExceptionD2Ev@Base 3.3.3-1
 _ZN30YUIButtonRoleMismatchExceptionD0Ev@Base 3.3.3-1
 _ZN30YUIButtonRoleMismatchExceptionD1Ev@Base 3.3.3-1
 _ZN30YUIButtonRoleMismatchExceptionD2Ev@Base 3.3.3-1
 _ZN31YUIDialogStackingOrderExceptionC1Ev@Base 3.3.3-1
 _ZN31YUIDialogStackingOrderExceptionC2Ev@Base 3.3.3-1
 _ZN31YUIDialogStackingOrderExceptionD0Ev@Base 3.3.3-1
 _ZN31YUIDialogStackingOrderExceptionD1Ev@Base 3.3.3-1
 _ZN31YUIDialogStackingOrderExceptionD2Ev@Base 3.3.3-1
 _ZN31YUISetReadOnlyPropertyExceptionD0Ev@Base 3.3.3-1
 _ZN31YUISetReadOnlyPropertyExceptionD1Ev@Base 3.3.3-1
 _ZN31YUISetReadOnlyPropertyExceptionD2Ev@Base 3.3.3-1
 _ZN32YUIPropertyTypeMismatchExceptionD0Ev@Base 3.3.3-1
 _ZN32YUIPropertyTypeMismatchExceptionD1Ev@Base 3.3.3-1
 _ZN32YUIPropertyTypeMismatchExceptionD2Ev@Base 3.3.3-1
 _ZN3YUI11blockEventsEb@Base 3.3.3-1
 _ZN3YUI12deleteNotifyEP7YWidget@Base 3.3.3-1
 _ZN3YUI13widgetFactoryEv@Base 3.3.3-1
 _ZN3YUI14createUIThreadEv@Base 3.3.3-1
 _ZN3YUI14signalUIThreadEv@Base 3.3.3-1
 _ZN3YUI15ensureUICreatedEv@Base 3.3.3-1
 _ZN3YUI15shutdownThreadsEv@Base 3.3.3-1
 _ZN3YUI15signalYCPThreadEv@Base 3.3.3-1
 _ZN3YUI15waitForUIThreadEv@Base 3.3.3-1
 _ZN3YUI16uiThreadMainLoopEv@Base 3.3.3-1
 _ZN3YUI16waitForYCPThreadEv@Base 3.3.3-1
 _ZN3YUI17terminateUIThreadEv@Base 3.3.3-1
 _ZN3YUI18uiThreadDestructorEv@Base 3.3.3-1
 _ZN3YUI21optionalWidgetFactoryEv@Base 3.3.3-1
 _ZN3YUI29setButtonOrderFromEnvironmentEv@Base 3.3.3-1
 _ZN3YUI29topmostConstructorHasFinishedEv@Base 3.3.3-1
 _ZN3YUI2uiEv@Base 3.3.3-1
 _ZN3YUI3_uiE@Base 3.3.3-1
 _ZN3YUI3appEv@Base 3.3.3-1
 _ZN3YUIC1Eb@Base 3.3.3-1
 _ZN3YUIC2Eb@Base 3.3.3-1
 _ZN3YUID0Ev@Base 3.3.3-1
 _ZN3YUID1Ev@Base 3.3.3-1
 _ZN3YUID2Ev@Base 3.3.3-1
 _ZN5FSize9fillBlockES_@Base 3.3.3-1
 _ZN5FSizeC1ERKSsNS_4UnitE@Base 3.3.3-1
 _ZN5FSizeC2ERKSsNS_4UnitE@Base 3.3.3-1
 _ZN5YItem11_noChildrenE@Base 3.3.3-1
 _ZN5YItem11childrenEndEv@Base 3.3.3-1
 _ZN5YItem13childrenBeginEv@Base 3.3.3-1
 _ZN5YItemD0Ev@Base 3.3.3-1
 _ZN5YItemD1Ev@Base 3.3.3-1
 _ZN5YItemD2Ev@Base 3.3.3-1
 _ZN5YPath13lookRecursiveERKSsS1_@Base 3.3.3-1
 _ZN5YPath3dirEv@Base 3.3.3-1
 _ZN5YPath4pathEv@Base 3.3.3-1
 _ZN5YPath5lsDirERKSs@Base 3.3.3-1
 _ZN5YPathC1ERKSsS1_@Base 3.3.3-1
 _ZN5YPathC2ERKSsS1_@Base 3.3.3-1
 _ZN5YPathD1Ev@Base 3.3.3-1
 _ZN5YPathD2Ev@Base 3.3.3-1
 _ZN5YTree11getPropertyERKSs@Base 3.3.3-1
 _ZN5YTree11propertySetEv@Base 3.3.3-1
 _ZN5YTree11setPropertyERKSsRK14YPropertyValue@Base 3.3.3-1
 _ZN5YTree16setImmediateModeEb@Base 3.3.3-1
 _ZN5YTree17userInputPropertyEv@Base 3.3.3-1
 _ZN5YTree8addItemsERKSt6vectorIP5YItemSaIS2_EE@Base 3.3.3-1
 _ZN5YTreeC1EP7YWidgetRKSsbb@Base 3.3.3-1
 _ZN5YTreeC2EP7YWidgetRKSsbb@Base 3.3.3-1
 _ZN5YTreeD0Ev@Base 3.3.3-1
 _ZN5YTreeD1Ev@Base 3.3.3-1
 _ZN5YTreeD2Ev@Base 3.3.3-1
 _ZN5boost14checked_deleteI13YGraphPrivateEEvPT_@Base 3.3.3-1
 _ZN5boost14checked_deleteI15YLogViewPrivateEEvPT_@Base 3.3.3-1
 _ZN5boost14checked_deleteI16YBarGraphPrivateEEvPT_@Base 3.3.3-1
 _ZN5boost14checked_deleteI18YInputFieldPrivateEEvPT_@Base 3.3.3-1
 _ZN5boost14checked_deleteI19YApplicationPrivateEEvPT_@Base 3.3.3-1
 _ZN5boost14checked_deleteI19YCommandLinePrivateEEvPT_@Base 3.3.3-1
 _ZN5boost14checked_deleteI19YTableHeaderPrivateEEvPT_@Base 3.3.3-1
 _ZN5boost14checked_deleteI23YSelectionWidgetPrivateEEvPT_@Base 3.3.3-1
 _ZN5boost14checked_deleteI24YDownloadProgressPrivateEEvPT_@Base 3.3.3-1
 _ZN5boost14checked_deleteI25YPartitionSplitterPrivateEEvPT_@Base 3.3.3-1
 _ZN6YEmpty14preferredWidthEv@Base 3.3.3-1
 _ZN6YEmpty15preferredHeightEv@Base 3.3.3-1
 _ZN6YEmptyC1EP7YWidget@Base 3.3.3-1
 _ZN6YEmptyC2EP7YWidget@Base 3.3.3-1
 _ZN6YEmptyD0Ev@Base 3.3.3-1
 _ZN6YEmptyD1Ev@Base 3.3.3-1
 _ZN6YEmptyD2Ev@Base 3.3.3-1
 _ZN6YEvent10invalidateEv@Base 3.3.3-1
 _ZN6YEvent11_nextSerialE@Base 3.3.3-1
 _ZN6YEvent8toStringENS_11EventReasonE@Base 3.3.3-1
 _ZN6YEvent8toStringENS_9EventTypeE@Base 3.3.3-1
 _ZN6YEventC1ENS_9EventTypeE@Base 3.3.3-1
 _ZN6YEventC2ENS_9EventTypeE@Base 3.3.3-1
 _ZN6YEventD0Ev@Base 3.3.3-1
 _ZN6YEventD1Ev@Base 3.3.3-1
 _ZN6YEventD2Ev@Base 3.3.3-1
 _ZN6YFrame11getPropertyERKSs@Base 3.3.3-1
 _ZN6YFrame11propertySetEv@Base 3.3.3-1
 _ZN6YFrame11setPropertyERKSsRK14YPropertyValue@Base 3.3.3-1
 _ZN6YFrame8setLabelERKSs@Base 3.3.3-1
 _ZN6YFrameC1EP7YWidgetRKSs@Base 3.3.3-1
 _ZN6YFrameC2EP7YWidgetRKSs@Base 3.3.3-1
 _ZN6YFrameD0Ev@Base 3.3.3-1
 _ZN6YFrameD1Ev@Base 3.3.3-1
 _ZN6YFrameD2Ev@Base 3.3.3-1
 _ZN6YGraph11getPropertyERKSs@Base 3.3.3-1
 _ZN6YGraph11propertySetEv@Base 3.3.3-1
 _ZN6YGraph11setFilenameERKSs@Base 3.3.3-1
 _ZN6YGraph11setPropertyERKSsRK14YPropertyValue@Base 3.3.3-1
 _ZN6YGraph18setLayoutAlgorithmERKSs@Base 3.3.3-1
 _ZN6YGraph8setGraphEPv@Base 3.3.3-1
 _ZN6YGraphC1EP7YWidgetPv@Base 3.3.3-1
 _ZN6YGraphC1EP7YWidgetRKSsS3_@Base 3.3.3-1
 _ZN6YGraphC2EP7YWidgetPv@Base 3.3.3-1
 _ZN6YGraphC2EP7YWidgetRKSsS3_@Base 3.3.3-1
 _ZN6YGraphD0Ev@Base 3.3.3-1
 _ZN6YGraphD1Ev@Base 3.3.3-1
 _ZN6YGraphD2Ev@Base 3.3.3-1
 _ZN6YImage11setZeroSizeE12YUIDimensionb@Base 3.3.3-1
 _ZN6YImage12setAutoScaleEb@Base 3.3.3-1
 _ZN6YImage8setImageERKSsb@Base 3.3.3-1
 _ZN6YImageC1EP7YWidgetRKSsb@Base 3.3.3-1
 _ZN6YImageC2EP7YWidgetRKSsb@Base 3.3.3-1
 _ZN6YImageD0Ev@Base 3.3.3-1
 _ZN6YImageD1Ev@Base 3.3.3-1
 _ZN6YImageD2Ev@Base 3.3.3-1
 _ZN6YLabel11getPropertyERKSs@Base 3.3.3-1
 _ZN6YLabel11propertySetEv@Base 3.3.3-1
 _ZN6YLabel11setPropertyERKSsRK14YPropertyValue@Base 3.3.3-1
 _ZN6YLabel14setUseBoldFontEb@Base 3.3.3-1
 _ZN6YLabel7setTextERKSs@Base 3.3.3-1
 _ZN6YLabelC1EP7YWidgetRKSsbb@Base 3.3.3-1
 _ZN6YLabelC2EP7YWidgetRKSsbb@Base 3.3.3-1
 _ZN6YLabelD0Ev@Base 3.3.3-1
 _ZN6YLabelD1Ev@Base 3.3.3-1
 _ZN6YLabelD2Ev@Base 3.3.3-1
 _ZN6YMacro11setRecorderEP14YMacroRecorder@Base 3.3.3-1
 _ZN6YMacro12deletePlayerEv@Base 3.3.3-1
 _ZN6YMacro12endRecordingEv@Base 3.3.3-1
 _ZN6YMacro13playNextBlockEv@Base 3.3.3-1
 _ZN6YMacro14deleteRecorderEv@Base 3.3.3-1
 _ZN6YMacro4playERKSs@Base 3.3.3-1
 _ZN6YMacro6recordERKSs@Base 3.3.3-1
 _ZN6YMacro7_playerE@Base 3.3.3-1
 _ZN6YMacro7playingEv@Base 3.3.3-1
 _ZN6YMacro9_recorderE@Base 3.3.3-1
 _ZN6YMacro9recordingEv@Base 3.3.3-1
 _ZN6YMacro9setPlayerEP12YMacroPlayer@Base 3.3.3-1
 _ZN6YTable11getPropertyERKSs@Base 3.3.3-1
 _ZN6YTable11propertySetEv@Base 3.3.3-1
 _ZN6YTable11setPropertyERKSsRK14YPropertyValue@Base 3.3.3-1
 _ZN6YTable14setKeepSortingEb@Base 3.3.3-1
 _ZN6YTable14setTableHeaderEP12YTableHeader@Base 3.3.3-1
 _ZN6YTable16setImmediateModeEb@Base 3.3.3-1
 _ZN6YTable17userInputPropertyEv@Base 3.3.3-1
 _ZN6YTableC1EP7YWidgetP12YTableHeaderb@Base 3.3.3-1
 _ZN6YTableC2EP7YWidgetP12YTableHeaderb@Base 3.3.3-1
 _ZN6YTableD0Ev@Base 3.3.3-1
 _ZN6YTableD1Ev@Base 3.3.3-1
 _ZN6YTableD2Ev@Base 3.3.3-1
 _ZN6YUILog11logFileNameEv@Base 3.3.3-1
 _ZN6YUILog14loggerFunctionEb@Base 3.3.3-1
 _ZN6YUILog14setLogFileNameERKSs@Base 3.3.3-1
 _ZN6YUILog17setLoggerFunctionEPFv13YUILogLevel_tPKcS2_iS2_S2_E@Base 3.3.3-1
 _ZN6YUILog18enableDebugLoggingEb@Base 3.3.3-1
 _ZN6YUILog19debugLoggingEnabledEv@Base 3.3.3-1
 _ZN6YUILog22enableDebugLoggingHookEv@Base 3.3.3-1
 _ZN6YUILog23debugLoggingEnabledHookEv@Base 3.3.3-1
 _ZN6YUILog26setEnableDebugLoggingHooksEPFvbEPFbvE@Base 3.3.3-1
 _ZN6YUILog3logE13YUILogLevel_tPKcS2_iS2_@Base 3.3.3-1
 _ZN6YUILog5debugEPKcS1_iS1_@Base 3.3.3-1
 _ZN6YUILog5errorEPKcS1_iS1_@Base 3.3.3-1
 _ZN6YUILog7warningEPKcS1_iS1_@Base 3.3.3-1
 _ZN6YUILog8basenameERKSs@Base 3.3.3-1
 _ZN6YUILog8instanceEv@Base 3.3.3-1
 _ZN6YUILog9milestoneEPKcS1_iS1_@Base 3.3.3-1
 _ZN6YUILogC1Ev@Base 3.3.3-1
 _ZN6YUILogC2Ev@Base 3.3.3-1
 _ZN6YUILogD1Ev@Base 3.3.3-1
 _ZN6YUILogD2Ev@Base 3.3.3-1
 _ZN7ImplPtrI13YUILogPrivateED1Ev@Base 3.3.3-1
 _ZN7ImplPtrI13YUILogPrivateED2Ev@Base 3.3.3-1
 _ZN7YDialog11deleteEventEP6YEvent@Base 3.3.3-1
 _ZN7YDialog12_dialogStackE@Base 3.3.3-1
 _ZN7YDialog12isMainDialogEv@Base 3.3.3-1
 _ZN7YDialog12recalcLayoutEv@Base 3.3.3-1
 _ZN7YDialog12showHelpTextEP7YWidget@Base 3.3.3-1
 _ZN7YDialog12waitForEventEi@Base 3.3.3-1
 _ZN7YDialog13currentDialogEb@Base 3.3.3-1
 _ZN7YDialog14addEventFilterEP12YEventFilter@Base 3.3.3-1
 _ZN7YDialog14checkShortcutsEb@Base 3.3.3-1
 _ZN7YDialog14setInitialSizeEv@Base 3.3.3-1
 _ZN7YDialog16callEventFiltersEP6YEvent@Base 3.3.3-1
 _ZN7YDialog16deleteAllDialogsEv@Base 3.3.3-1
 _ZN7YDialog16openDialogsCountEv@Base 3.3.3-1
 _ZN7YDialog16setDefaultButtonEP11YPushButton@Base 3.3.3-1
 _ZN7YDialog16showRelNotesTextEv@Base 3.3.3-1
 _ZN7YDialog17removeEventFilterEP12YEventFilter@Base 3.3.3-1
 _ZN7YDialog18deleteEventFiltersEv@Base 3.3.3-1
 _ZN7YDialog19deleteTopmostDialogEb@Base 3.3.3-1
 _ZN7YDialog19filterInvalidEventsEP6YEvent@Base 3.3.3-1
 _ZN7YDialog21postponeShortcutCheckEv@Base 3.3.3-1
 _ZN7YDialog4openEv@Base 3.3.3-1
 _ZN7YDialog7destroyEb@Base 3.3.3-1
 _ZN7YDialog8deleteToEPS_@Base 3.3.3-1
 _ZN7YDialog8showTextERKSsb@Base 3.3.3-1
 _ZN7YDialog9highlightEP7YWidget@Base 3.3.3-1
 _ZN7YDialog9pollEventEv@Base 3.3.3-1
 _ZN7YDialogC1E11YDialogType16YDialogColorMode@Base 3.3.3-1
 _ZN7YDialogC2E11YDialogType16YDialogColorMode@Base 3.3.3-1
 _ZN7YDialogD0Ev@Base 3.3.3-1
 _ZN7YDialogD1Ev@Base 3.3.3-1
 _ZN7YDialogD2Ev@Base 3.3.3-1
 _ZN7YEnvVarC1ERKSs@Base 3.3.3-1
 _ZN7YEnvVarC2ERKSs@Base 3.3.3-1
 _ZN7YEnvVarD1Ev@Base 3.3.3-1
 _ZN7YEnvVarD2Ev@Base 3.3.3-1
 _ZN7YSliderC1EP7YWidgetRKSsii@Base 3.3.3-1
 _ZN7YSliderC2EP7YWidgetRKSsii@Base 3.3.3-1
 _ZN7YSliderD0Ev@Base 3.3.3-1
 _ZN7YSliderD1Ev@Base 3.3.3-1
 _ZN7YSliderD2Ev@Base 3.3.3-1
 _ZN7YSquashC1EP7YWidgetbb@Base 3.3.3-1
 _ZN7YSquashC2EP7YWidgetbb@Base 3.3.3-1
 _ZN7YSquashD0Ev@Base 3.3.3-1
 _ZN7YSquashD1Ev@Base 3.3.3-1
 _ZN7YSquashD2Ev@Base 3.3.3-1
 _ZN7YWidget10dumpWidgetEPS_i@Base 3.3.3-1
 _ZN7YWidget10findDialogEv@Base 3.3.3-1
 _ZN7YWidget10invalidateEv@Base 3.3.3-1
 _ZN7YWidget10setEnabledEb@Base 3.3.3-1
 _ZN7YWidget11getPropertyERKSs@Base 3.3.3-1
 _ZN7YWidget11propertySetEv@Base 3.3.3-1
 _ZN7YWidget11removeChildEPS_@Base 3.3.3-1
 _ZN7YWidget11setHelpTextERKSs@Base 3.3.3-1
 _ZN7YWidget11setPropertyERKSsRK14YPropertyValue@Base 3.3.3-1
 _ZN7YWidget12setWidgetRepEPv@Base 3.3.3-1
 _ZN7YWidget13preferredSizeE12YUIDimension@Base 3.3.3-1
 _ZN7YWidget13saveUserInputEP14YMacroRecorder@Base 3.3.3-1
 _ZN7YWidget14deleteChildrenEv@Base 3.3.3-1
 _ZN7YWidget14dumpWidgetTreeEi@Base 3.3.3-1
 _ZN7YWidget14setFunctionKeyEi@Base 3.3.3-1
 _ZN7YWidget14setStretchableE12YUIDimensionb@Base 3.3.3-1
 _ZN7YWidget15setAutoShortcutEb@Base 3.3.3-1
 _ZN7YWidget16_usedOperatorNewE@Base 3.3.3-1
 _ZN7YWidget16setKeyboardFocusEv@Base 3.3.3-1
 _ZN7YWidget16setSendKeyEventsEb@Base 3.3.3-1
 _ZN7YWidget17setBeingDestroyedEv@Base 3.3.3-1
 _ZN7YWidget17setShortcutStringERKSs@Base 3.3.3-1
 _ZN7YWidget17userInputPropertyEv@Base 3.3.3-1
 _ZN7YWidget18setChildrenEnabledEb@Base 3.3.3-1
 _ZN7YWidget18setChildrenManagerEP16YChildrenManagerIS_E@Base 3.3.3-1
 _ZN7YWidget19doneMultipleChangesEv@Base 3.3.3-1
 _ZN7YWidget20dumpDialogWidgetTreeEv@Base 3.3.3-1
 _ZN7YWidget20setNotifyContextMenuEb@Base 3.3.3-1
 _ZN7YWidget20startMultipleChangesEv@Base 3.3.3-1
 _ZN7YWidget21setDefaultStretchableE12YUIDimensionb@Base 3.3.3-1
 _ZN7YWidget5setIdEP9YWidgetID@Base 3.3.3-1
 _ZN7YWidget6weightE12YUIDimension@Base 3.3.3-1
 _ZN7YWidget8addChildEPS_@Base 3.3.3-1
 _ZN7YWidget9hasWeightE12YUIDimension@Base 3.3.3-1
 _ZN7YWidget9setNotifyEb@Base 3.3.3-1
 _ZN7YWidget9setParentEPS_@Base 3.3.3-1
 _ZN7YWidget9setWeightE12YUIDimensioni@Base 3.3.3-1
 _ZN7YWidgetC1EPS_@Base 3.3.3-1
 _ZN7YWidgetC2EPS_@Base 3.3.3-1
 _ZN7YWidgetD0Ev@Base 3.3.3-1
 _ZN7YWidgetD1Ev@Base 3.3.3-1
 _ZN7YWidgetD2Ev@Base 3.3.3-1
 _ZN7YWidgetnwEm@Base 3.3.3-1
 _ZN7YWizard11getPropertyERKSs@Base 3.3.3-1
 _ZN7YWizard11propertySetEv@Base 3.3.3-1
 _ZN7YWizard14setButtonLabelEP11YPushButtonRKSs@Base 3.3.3-1
 _ZN7YWizard17protectNextButtonEb@Base 3.3.3-1
 _ZN7YWizard4pingEv@Base 3.3.3-1
 _ZN7YWizardC1EP7YWidgetRKSsS3_S3_11YWizardMode@Base 3.3.3-1
 _ZN7YWizardC2EP7YWidgetRKSsS3_S3_11YWizardMode@Base 3.3.3-1
 _ZN7YWizardD0Ev@Base 3.3.3-1
 _ZN7YWizardD1Ev@Base 3.3.3-1
 _ZN7YWizardD2Ev@Base 3.3.3-1
 _ZN8TreeItemI10YTransTextED0Ev@Base 3.3.3-1
 _ZN8TreeItemI10YTransTextED1Ev@Base 3.3.3-1
 _ZN8TreeItemI10YTransTextED2Ev@Base 3.3.3-1
 _ZN8YDumbTab11getPropertyERKSs@Base 3.3.3-1
 _ZN8YDumbTab11propertySetEv@Base 3.3.3-1
 _ZN8YDumbTab11setPropertyERKSsRK14YPropertyValue@Base 3.3.3-1
 _ZN8YDumbTab15shortcutChangedEv@Base 3.3.3-1
 _ZN8YDumbTab17setShortcutStringERKSs@Base 3.3.3-1
 _ZN8YDumbTab7addItemEP5YItem@Base 3.3.3-1
 _ZN8YDumbTab8setLabelERKSs@Base 3.3.3-1
 _ZN8YDumbTabC1EP7YWidget@Base 3.3.3-1
 _ZN8YDumbTabC2EP7YWidget@Base 3.3.3-1
 _ZN8YDumbTabD0Ev@Base 3.3.3-1
 _ZN8YDumbTabD1Ev@Base 3.3.3-1
 _ZN8YDumbTabD2Ev@Base 3.3.3-1
 _ZN8YLogView10appendLineERKSs@Base 3.3.3-1
 _ZN8YLogView10setLogTextERKSs@Base 3.3.3-1
 _ZN8YLogView11appendLinesERKSs@Base 3.3.3-1
 _ZN8YLogView11getPropertyERKSs@Base 3.3.3-1
 _ZN8YLogView11propertySetEv@Base 3.3.3-1
 _ZN8YLogView11setMaxLinesEi@Base 3.3.3-1
 _ZN8YLogView11setPropertyERKSsRK14YPropertyValue@Base 3.3.3-1
 _ZN8YLogView13updateDisplayEv@Base 3.3.3-1
 _ZN8YLogView15setVisibleLinesEi@Base 3.3.3-1
 _ZN8YLogView17setShortcutStringERKSs@Base 3.3.3-1
 _ZN8YLogView8setLabelERKSs@Base 3.3.3-1
 _ZN8YLogView9clearTextEv@Base 3.3.3-1
 _ZN8YLogViewC1EP7YWidgetRKSsii@Base 3.3.3-1
 _ZN8YLogViewC2EP7YWidgetRKSsii@Base 3.3.3-1
 _ZN8YLogViewD0Ev@Base 3.3.3-1
 _ZN8YLogViewD1Ev@Base 3.3.3-1
 _ZN8YLogViewD2Ev@Base 3.3.3-1
 _ZN8YSpacing14preferredWidthEv@Base 3.3.3-1
 _ZN8YSpacing15preferredHeightEv@Base 3.3.3-1
 _ZN8YSpacingC1EP7YWidget12YUIDimensionbd@Base 3.3.3-1
 _ZN8YSpacingC2EP7YWidget12YUIDimensionbd@Base 3.3.3-1
 _ZN8YSpacingD0Ev@Base 3.3.3-1
 _ZN8YSpacingD1Ev@Base 3.3.3-1
 _ZN8YSpacingD2Ev@Base 3.3.3-1
 _ZN9YBarGraph10addSegmentERK16YBarGraphSegment@Base 3.3.3-1
 _ZN9YBarGraph11getPropertyERKSs@Base 3.3.3-1
 _ZN9YBarGraph11propertySetEv@Base 3.3.3-1
 _ZN9YBarGraph11setPropertyERKSsRK14YPropertyValue@Base 3.3.3-1
 _ZN9YBarGraph12setTextColorEiRK6YColor@Base 3.3.3-1
 _ZN9YBarGraph13updateDisplayEv@Base 3.3.3-1
 _ZN9YBarGraph15setSegmentColorEiRK6YColor@Base 3.3.3-1
 _ZN9YBarGraph17deleteAllSegmentsEv@Base 3.3.3-1
 _ZN9YBarGraph8segmentsEv@Base 3.3.3-1
 _ZN9YBarGraph8setLabelEiRKSs@Base 3.3.3-1
 _ZN9YBarGraph8setValueEii@Base 3.3.3-1
 _ZN9YBarGraphC1EP7YWidget@Base 3.3.3-1
 _ZN9YBarGraphC2EP7YWidget@Base 3.3.3-1
 _ZN9YBarGraphD0Ev@Base 3.3.3-1
 _ZN9YBarGraphD1Ev@Base 3.3.3-1
 _ZN9YBarGraphD2Ev@Base 3.3.3-1
 _ZN9YCheckBox11getPropertyERKSs@Base 3.3.3-1
 _ZN9YCheckBox11propertySetEv@Base 3.3.3-1
 _ZN9YCheckBox11setPropertyERKSsRK14YPropertyValue@Base 3.3.3-1
 _ZN9YCheckBox14setUseBoldFontEb@Base 3.3.3-1
 _ZN9YCheckBox17setShortcutStringERKSs@Base 3.3.3-1
 _ZN9YCheckBox17userInputPropertyEv@Base 3.3.3-1
 _ZN9YCheckBox8setLabelERKSs@Base 3.3.3-1
 _ZN9YCheckBoxC1EP7YWidgetRKSs@Base 3.3.3-1
 _ZN9YCheckBoxC2EP7YWidgetRKSs@Base 3.3.3-1
 _ZN9YCheckBoxD0Ev@Base 3.3.3-1
 _ZN9YCheckBoxD1Ev@Base 3.3.3-1
 _ZN9YCheckBoxD2Ev@Base 3.3.3-1
 _ZN9YComboBox10selectItemEP5YItemb@Base 3.3.3-1
 _ZN9YComboBox10validCharsEv@Base 3.3.3-1
 _ZN9YComboBox11getPropertyERKSs@Base 3.3.3-1
 _ZN9YComboBox11propertySetEv@Base 3.3.3-1
 _ZN9YComboBox11setPropertyERKSsRK14YPropertyValue@Base 3.3.3-1
 _ZN9YComboBox12selectedItemEv@Base 3.3.3-1
 _ZN9YComboBox13selectedItemsEv@Base 3.3.3-1
 _ZN9YComboBox13setValidCharsERKSs@Base 3.3.3-1
 _ZN9YComboBox17setInputMaxLengthEi@Base 3.3.3-1
 _ZN9YComboBox17userInputPropertyEv@Base 3.3.3-1
 _ZN9YComboBox5valueEv@Base 3.3.3-1
 _ZN9YComboBox8setValueERKSs@Base 3.3.3-1
 _ZN9YComboBoxC1EP7YWidgetRKSsb@Base 3.3.3-1
 _ZN9YComboBoxC2EP7YWidgetRKSsb@Base 3.3.3-1
 _ZN9YComboBoxD0Ev@Base 3.3.3-1
 _ZN9YComboBoxD1Ev@Base 3.3.3-1
 _ZN9YComboBoxD2Ev@Base 3.3.3-1
 _ZN9YIntField11getPropertyERKSs@Base 3.3.3-1
 _ZN9YIntField11propertySetEv@Base 3.3.3-1
 _ZN9YIntField11setMaxValueEi@Base 3.3.3-1
 _ZN9YIntField11setMinValueEi@Base 3.3.3-1
 _ZN9YIntField11setPropertyERKSsRK14YPropertyValue@Base 3.3.3-1
 _ZN9YIntField17setShortcutStringERKSs@Base 3.3.3-1
 _ZN9YIntField17userInputPropertyEv@Base 3.3.3-1
 _ZN9YIntField8setLabelERKSs@Base 3.3.3-1
 _ZN9YIntFieldC1EP7YWidgetRKSsii@Base 3.3.3-1
 _ZN9YIntFieldC2EP7YWidgetRKSsii@Base 3.3.3-1
 _ZN9YIntFieldD0Ev@Base 3.3.3-1
 _ZN9YIntFieldD1Ev@Base 3.3.3-1
 _ZN9YIntFieldD2Ev@Base 3.3.3-1
 _ZN9YKeyEventC1ERKSsP7YWidget@Base 3.3.3-1
 _ZN9YKeyEventC2ERKSsP7YWidget@Base 3.3.3-1
 _ZN9YKeyEventD0Ev@Base 3.3.3-1
 _ZN9YKeyEventD1Ev@Base 3.3.3-1
 _ZN9YKeyEventD2Ev@Base 3.3.3-1
 _ZN9YMenuItemD0Ev@Base 3.3.3-1
 _ZN9YMenuItemD1Ev@Base 3.3.3-1
 _ZN9YMenuItemD2Ev@Base 3.3.3-1
 _ZN9YProperty9typeAsStrE13YPropertyType@Base 3.3.3-1
 _ZN9YRichText11getPropertyERKSs@Base 3.3.3-1
 _ZN9YRichText11propertySetEv@Base 3.3.3-1
 _ZN9YRichText11setPropertyERKSsRK14YPropertyValue@Base 3.3.3-1
 _ZN9YRichText13setShrinkableEb@Base 3.3.3-1
 _ZN9YRichText16setPlainTextModeEb@Base 3.3.3-1
 _ZN9YRichText17setAutoScrollDownEb@Base 3.3.3-1
 _ZN9YRichText8setValueERKSs@Base 3.3.3-1
 _ZN9YRichTextC1EP7YWidgetRKSsb@Base 3.3.3-1
 _ZN9YRichTextC2EP7YWidgetRKSsb@Base 3.3.3-1
 _ZN9YRichTextD0Ev@Base 3.3.3-1
 _ZN9YRichTextD1Ev@Base 3.3.3-1
 _ZN9YRichTextD2Ev@Base 3.3.3-1
 _ZN9YSettings10_localeDirE@Base 3.3.3-1
 _ZN9YSettings10setIconDirESs@Base 3.3.3-1
 _ZN9YSettings10setProgDirESs@Base 3.3.3-1
 _ZN9YSettings11setThemeDirESs@Base 3.3.3-1
 _ZN9YSettings12setLocaleDirESs@Base 3.3.3-1
 _ZN9YSettings7iconDirEv@Base 3.3.3-1
 _ZN9YSettings7progDirEv@Base 3.3.3-1
 _ZN9YSettings8_iconDirE@Base 3.3.3-1
 _ZN9YSettings8_progDirE@Base 3.3.3-1
 _ZN9YSettings8loadedUIESs@Base 3.3.3-1
 _ZN9YSettings8loadedUIESsb@Base 3.3.3-1
 _ZN9YSettings8loadedUIEv@Base 3.3.3-1
 _ZN9YSettings8themeDirEv@Base 3.3.3-1
 _ZN9YSettings9_loadedUIE@Base 3.3.3-1
 _ZN9YSettings9_themeDirE@Base 3.3.3-1
 _ZN9YSettings9localeDirEv@Base 3.3.3-1
 _ZN9YSettingsC1Ev@Base 3.3.3-1
 _ZN9YSettingsC2Ev@Base 3.3.3-1
 _ZN9YSettingsD1Ev@Base 3.3.3-1
 _ZN9YSettingsD2Ev@Base 3.3.3-1
 _ZN9YShortcut10normalizedEc@Base 3.3.3-1
 _ZN9YShortcut11setShortcutEc@Base 3.3.3-1
 _ZN9YShortcut12findShortcutERKSsm@Base 3.3.3-1
 _ZN9YShortcut13clearShortcutEv@Base 3.3.3-1
 _ZN9YShortcut14shortcutStringEv@Base 3.3.3-1
 _ZN9YShortcut15findShortcutPosERKSsm@Base 3.3.3-1
 _ZN9YShortcut17getShortcutStringEPK7YWidget@Base 3.3.3-1
 _ZN9YShortcut17getShortcutStringEv@Base 3.3.3-1
 _ZN9YShortcut19cleanShortcutStringESs@Base 3.3.3-1
 _ZN9YShortcut19cleanShortcutStringEv@Base 3.3.3-1
 _ZN9YShortcut20hasValidShortcutCharEv@Base 3.3.3-1
 _ZN9YShortcut21distinctShortcutCharsEv@Base 3.3.3-1
 _ZN9YShortcut7isValidEc@Base 3.3.3-1
 _ZN9YShortcut8shortcutEv@Base 3.3.3-1
 _ZN9YShortcut9preferredEv@Base 3.3.3-1
 _ZN9YShortcutC1EP7YWidget@Base 3.3.3-1
 _ZN9YShortcutC2EP7YWidget@Base 3.3.3-1
 _ZN9YShortcutD0Ev@Base 3.3.3-1
 _ZN9YShortcutD1Ev@Base 3.3.3-1
 _ZN9YShortcutD2Ev@Base 3.3.3-1
 _ZN9YTreeItem11childrenEndEv@Base 3.3.3-1
 _ZN9YTreeItem13childrenBeginEv@Base 3.3.3-1
 _ZN9YTreeItem14deleteChildrenEv@Base 3.3.3-1
 _ZN9YTreeItem7setOpenEb@Base 3.3.3-1
 _ZN9YTreeItem8addChildEP5YItem@Base 3.3.3-1
 _ZN9YTreeItemC1EPS_RKSsS2_b@Base 3.3.3-1
 _ZN9YTreeItemC1EPS_RKSsb@Base 3.3.3-1
 _ZN9YTreeItemC1ERKSsS1_b@Base 3.3.3-1
 _ZN9YTreeItemC1ERKSsb@Base 3.3.3-1
 _ZN9YTreeItemC2EPS_RKSsS2_b@Base 3.3.3-1
 _ZN9YTreeItemC2EPS_RKSsb@Base 3.3.3-1
 _ZN9YTreeItemC2ERKSsS1_b@Base 3.3.3-1
 _ZN9YTreeItemC2ERKSsb@Base 3.3.3-1
 _ZN9YTreeItemD0Ev@Base 3.3.3-1
 _ZN9YTreeItemD1Ev@Base 3.3.3-1
 _ZN9YTreeItemD2Ev@Base 3.3.3-1
 _ZN9YUILoader10loadPluginERKSsb@Base 3.3.3-1
 _ZN9YUILoader12pluginExistsERKSs@Base 3.3.3-1
 _ZN9YUILoader19loadExternalWidgetsERKSsS1_@Base 3.3.3-1
 _ZN9YUILoader25loadExternalWidgetsPluginERKSsS1_S1_@Base 3.3.3-1
 _ZN9YUILoader6loadUIEb@Base 3.3.3-1
 _ZN9YUILoader8deleteUIEv@Base 3.3.3-1
 _ZN9YUIPlugin12locateSymbolEPKc@Base 3.3.3-1
 _ZN9YUIPlugin6unloadEv@Base 3.3.3-1
 _ZN9YUIPluginC1EPKc@Base 3.3.3-1
 _ZN9YUIPluginC2EPKc@Base 3.3.3-1
 _ZN9YUIPluginD0Ev@Base 3.3.3-1
 _ZN9YUIPluginD1Ev@Base 3.3.3-1
 _ZN9YUIPluginD2Ev@Base 3.3.3-1
 _ZN9YWidgetIDD0Ev@Base 3.3.3-1
 _ZN9YWidgetIDD1Ev@Base 3.3.3-1
 _ZN9YWidgetIDD2Ev@Base 3.3.3-1
 _ZNK10YAlignment10leftMarginEv@Base 3.3.3-1
 _ZNK10YAlignment11rightMarginEv@Base 3.3.3-1
 _ZNK10YAlignment11stretchableE12YUIDimension@Base 3.3.3-1
 _ZNK10YAlignment11widgetClassEv@Base 3.3.3-1
 _ZNK10YAlignment12bottomMarginEv@Base 3.3.3-1
 _ZNK10YAlignment12totalMarginsE12YUIDimension@Base 3.3.3-1
 _ZNK10YAlignment16backgroundPixmapEv@Base 3.3.3-1
 _ZNK10YAlignment8minWidthEv@Base 3.3.3-1
 _ZNK10YAlignment9alignmentE12YUIDimension@Base 3.3.3-1
 _ZNK10YAlignment9minHeightEv@Base 3.3.3-1
 _ZNK10YAlignment9topMarginEv@Base 3.3.3-1
 _ZNK10YButtonBox11stretchableE12YUIDimension@Base 3.3.3-1
 _ZNK10YButtonBox11widgetClassEv@Base 3.3.3-1
 _ZNK10YButtonBox12maxChildSizeE12YUIDimension@Base 3.3.3-1
 _ZNK10YButtonBox18sanityCheckRelaxedEv@Base 3.3.3-1
 _ZNK10YButtonBox18totalChildrenWidthEv@Base 3.3.3-1
 _ZNK10YButtonBox7marginsEv@Base 3.3.3-1
 _ZNK10YDateField11widgetClassEv@Base 3.3.3-1
 _ZNK10YLayoutBox11debugLayoutEv@Base 3.3.3-1
 _ZNK10YLayoutBox11stretchableE12YUIDimension@Base 3.3.3-1
 _ZNK10YLayoutBox11widgetClassEv@Base 3.3.3-1
 _ZNK10YLayoutBox7primaryEv@Base 3.3.3-1
 _ZNK10YLayoutBox9secondaryEv@Base 3.3.3-1
 _ZNK10YTableItem11hasIconNameEi@Base 3.3.3-1
 _ZNK10YTableItem4cellEi@Base 3.3.3-1
 _ZNK10YTableItem5labelEi@Base 3.3.3-1
 _ZNK10YTableItem7hasCellEi@Base 3.3.3-1
 _ZNK10YTableItem8iconNameEi@Base 3.3.3-1
 _ZNK10YTimeField11widgetClassEv@Base 3.3.3-1
 _ZNK11YIconLoader12iconBasePathEv@Base 3.3.3-1
 _ZNK11YInputField10shrinkableEv@Base 3.3.3-1
 _ZNK11YInputField11widgetClassEv@Base 3.3.3-1
 _ZNK11YInputField12passwordModeEv@Base 3.3.3-1
 _ZNK11YInputField14inputMaxLengthEv@Base 3.3.3-1
 _ZNK11YInputField14shortcutStringEv@Base 3.3.3-1
 _ZNK11YInputField5labelEv@Base 3.3.3-1
 _ZNK11YMenuButton11widgetClassEv@Base 3.3.3-1
 _ZNK11YPushButton11widgetClassEv@Base 3.3.3-1
 _ZNK11YPushButton12isHelpButtonEv@Base 3.3.3-1
 _ZNK11YPushButton14shortcutStringEv@Base 3.3.3-1
 _ZNK11YPushButton15isDefaultButtonEv@Base 3.3.3-1
 _ZNK11YPushButton16isRelNotesButtonEv@Base 3.3.3-1
 _ZNK11YPushButton4roleEv@Base 3.3.3-1
 _ZNK11YPushButton5labelEv@Base 3.3.3-1
 _ZNK12YApplication10findWidgetEP9YWidgetIDb@Base 3.3.3-1
 _ZNK12YApplication11productNameEv@Base 3.3.3-1
 _ZNK12YApplication12iconBasePathEv@Base 3.3.3-1
 _ZNK12YApplication12releaseNotesEv@Base 3.3.3-1
 _ZNK12YApplication13reverseLayoutEv@Base 3.3.3-1
 _ZNK12YApplication15applicationIconEv@Base 3.3.3-1
 _ZNK12YApplication15showProductLogoEv@Base 3.3.3-1
 _ZNK12YApplication16applicationTitleEv@Base 3.3.3-1
 _ZNK12YApplication18defaultFunctionKeyERKSs@Base 3.3.3-1
 _ZNK12YApplication8languageEb@Base 3.3.3-1
 _ZNK12YCommandLine3argEi@Base 3.3.3-1
 _ZNK12YCommandLine4argcEv@Base 3.3.3-1
 _ZNK12YCommandLine4argvEv@Base 3.3.3-1
 _ZNK12YCommandLine4findERKSs@Base 3.3.3-1
 _ZNK12YContextMenu11widgetClassEv@Base 3.3.3-1
 _ZNK12YEventFilter6dialogEv@Base 3.3.3-1
 _ZNK12YProgressBar11widgetClassEv@Base 3.3.3-1
 _ZNK12YProgressBar5valueEv@Base 3.3.3-1
 _ZNK12YProgressBar8maxValueEv@Base 3.3.3-1
 _ZNK12YPropertySet13propertiesEndEv@Base 3.3.3-1
 _ZNK12YPropertySet15propertiesBeginEv@Base 3.3.3-1
 _ZNK12YPropertySet5checkERKSs13YPropertyType@Base 3.3.3-1
 _ZNK12YPropertySet5checkERKSs@Base 3.3.3-1
 _ZNK12YPropertySet8containsERKSs13YPropertyType@Base 3.3.3-1
 _ZNK12YPropertySet8containsERKSs@Base 3.3.3-1
 _ZNK12YRadioButton11useBoldFontEv@Base 3.3.3-1
 _ZNK12YRadioButton11widgetClassEv@Base 3.3.3-1
 _ZNK12YRadioButton14shortcutStringEv@Base 3.3.3-1
 _ZNK12YRadioButton20findRadioButtonGroupEv@Base 3.3.3-1
 _ZNK12YRadioButton5labelEv@Base 3.3.3-1
 _ZNK12YTableHeader6headerEi@Base 3.3.3-1
 _ZNK12YTableHeader7columnsEv@Base 3.3.3-1
 _ZNK12YTableHeader9alignmentEi@Base 3.3.3-1
 _ZNK12YTableHeader9hasColumnEi@Base 3.3.3-1
 _ZNK12YUIException4whatEv@Base 3.3.3-1
 _ZNK12YUIException6dumpOnERSo@Base 3.3.3-1
 _ZNK12YUIException8asStringEv@Base 3.3.3-1
 _ZNK12YUIException9dumpErrorERSo@Base 3.3.3-1
 _ZNK12YWidgetEvent6widgetEv@Base 3.3.3-1
 _ZNK13YCodeLocation8asStringEv@Base 3.3.3-1
 _ZNK13YReplacePoint11widgetClassEv@Base 3.3.3-1
 _ZNK13YSelectionBox10shrinkableEv@Base 3.3.3-1
 _ZNK13YSelectionBox11widgetClassEv@Base 3.3.3-1
 _ZNK13YSelectionBox13immediateModeEv@Base 3.3.3-1
 _ZNK14YBusyIndicator11widgetClassEv@Base 3.3.3-1
 _ZNK14YBusyIndicator5aliveEv@Base 3.3.3-1
 _ZNK14YBusyIndicator7timeoutEv@Base 3.3.3-1
 _ZNK14YCheckBoxFrame10autoEnableEv@Base 3.3.3-1
 _ZNK14YCheckBoxFrame11widgetClassEv@Base 3.3.3-1
 _ZNK14YCheckBoxFrame14shortcutStringEv@Base 3.3.3-1
 _ZNK14YCheckBoxFrame16invertAutoEnableEv@Base 3.3.3-1
 _ZNK14YCheckBoxFrame5labelEv@Base 3.3.3-1
 _ZNK14YMultiLineEdit11widgetClassEv@Base 3.3.3-1
 _ZNK14YMultiLineEdit14inputMaxLengthEv@Base 3.3.3-1
 _ZNK14YMultiLineEdit14shortcutStringEv@Base 3.3.3-1
 _ZNK14YMultiLineEdit19defaultVisibleLinesEv@Base 3.3.3-1
 _ZNK14YMultiLineEdit5labelEv@Base 3.3.3-1
 _ZNK14YPropertyValueeqERKS_@Base 3.3.3-1
 _ZNK14YPropertyValueneERKS_@Base 3.3.3-1
 _ZNK15YStringWidgetID13valueConstRefEv@Base 3.3.3-1
 _ZNK15YStringWidgetID5valueEv@Base 3.3.3-1
 _ZNK15YStringWidgetID7isEqualEP9YWidgetID@Base 3.3.3-1
 _ZNK15YStringWidgetID8toStringEv@Base 3.3.3-1
 _ZNK16YPackageSelector11widgetClassEv@Base 3.3.3-1
 _ZNK16YSelectionWidget10itemsBeginEv@Base 3.3.3-1
 _ZNK16YSelectionWidget10itemsCountEv@Base 3.3.3-1
 _ZNK16YSelectionWidget11widgetClassEv@Base 3.3.3-1
 _ZNK16YSelectionWidget12iconBasePathEv@Base 3.3.3-1
 _ZNK16YSelectionWidget12iconFullPathEP5YItem@Base 3.3.3-1
 _ZNK16YSelectionWidget12iconFullPathERKSs@Base 3.3.3-1
 _ZNK16YSelectionWidget12itemsContainEP5YItem@Base 3.3.3-1
 _ZNK16YSelectionWidget12itemsContainEP5YItemN9__gnu_cxx17__normal_iteratorIPKS1_St6vectorIS1_SaIS1_EEEES9_@Base 3.3.3-1
 _ZNK16YSelectionWidget14shortcutStringEv@Base 3.3.3-1
 _ZNK16YSelectionWidget18recursiveSelectionEv@Base 3.3.3-1
 _ZNK16YSelectionWidget22enforceSingleSelectionEv@Base 3.3.3-1
 _ZNK16YSelectionWidget5labelEv@Base 3.3.3-1
 _ZNK16YSelectionWidget6itemAtEi@Base 3.3.3-1
 _ZNK16YSelectionWidget8findItemERKSs@Base 3.3.3-1
 _ZNK16YSelectionWidget8findItemERKSsN9__gnu_cxx17__normal_iteratorIPKP5YItemSt6vectorIS5_SaIS5_EEEESB_@Base 3.3.3-1
 _ZNK16YSelectionWidget8hasItemsEv@Base 3.3.3-1
 _ZNK16YSelectionWidget8itemsEndEv@Base 3.3.3-1
 _ZNK16YSelectionWidget9firstItemEv@Base 3.3.3-1
 _ZNK17YDialogSpyPrivate15propertiesShownEv@Base 3.3.3-1
 _ZNK17YDownloadProgress11widgetClassEv@Base 3.3.3-1
 _ZNK17YDownloadProgress12expectedSizeEv@Base 3.3.3-1
 _ZNK17YDownloadProgress14currentPercentEv@Base 3.3.3-1
 _ZNK17YDownloadProgress15currentFileSizeEv@Base 3.3.3-1
 _ZNK17YDownloadProgress5labelEv@Base 3.3.3-1
 _ZNK17YDownloadProgress8filenameEv@Base 3.3.3-1
 _ZNK17YRadioButtonGroup11widgetClassEv@Base 3.3.3-1
 _ZNK17YRadioButtonGroup13currentButtonEv@Base 3.3.3-1
 _ZNK17YRadioButtonGroup15radioButtonsEndEv@Base 3.3.3-1
 _ZNK17YRadioButtonGroup17radioButtonsBeginEv@Base 3.3.3-1
 _ZNK17YRadioButtonGroup17radioButtonsCountEv@Base 3.3.3-1
 _ZNK17YSimpleInputField14shortcutStringEv@Base 3.3.3-1
 _ZNK17YSimpleInputField5labelEv@Base 3.3.3-1
 _ZNK17YTimezoneSelector11widgetClassEv@Base 3.3.3-1
 _ZNK18YMultiSelectionBox10shrinkableEv@Base 3.3.3-1
 _ZNK18YMultiSelectionBox11widgetClassEv@Base 3.3.3-1
 _ZNK18YPartitionSplitter11minFreeSizeEv@Base 3.3.3-1
 _ZNK18YPartitionSplitter11widgetClassEv@Base 3.3.3-1
 _ZNK18YPartitionSplitter12newPartLabelEv@Base 3.3.3-1
 _ZNK18YPartitionSplitter13totalFreeSizeEv@Base 3.3.3-1
 _ZNK18YPartitionSplitter14freeFieldLabelEv@Base 3.3.3-1
 _ZNK18YPartitionSplitter14minNewPartSizeEv@Base 3.3.3-1
 _ZNK18YPartitionSplitter17newPartFieldLabelEv@Base 3.3.3-1
 _ZNK18YPartitionSplitter8usedSizeEv@Base 3.3.3-1
 _ZNK18YPartitionSplitter9freeLabelEv@Base 3.3.3-1
 _ZNK18YPartitionSplitter9usedLabelEv@Base 3.3.3-1
 _ZNK19YMultiProgressMeter10horizontalEv@Base 3.3.3-1
 _ZNK19YMultiProgressMeter11widgetClassEv@Base 3.3.3-1
 _ZNK19YMultiProgressMeter12currentValueEi@Base 3.3.3-1
 _ZNK19YMultiProgressMeter8maxValueEi@Base 3.3.3-1
 _ZNK19YMultiProgressMeter8segmentsEv@Base 3.3.3-1
 _ZNK19YMultiProgressMeter8verticalEv@Base 3.3.3-1
 _ZNK19YMultiProgressMeter9dimensionEv@Base 3.3.3-1
 _ZNK19YSimpleEventHandler15eventPendingForEP7YWidget@Base 3.3.3-1
 _ZNK24YUIInvalidChildExceptionI7YWidgetE6dumpOnERSo@Base 3.3.3-1
 _ZNK26YUIBadPropertyArgException6dumpOnERSo@Base 3.3.3-1
 _ZNK27YSingleChildContainerWidget11stretchableE12YUIDimension@Base 3.3.3-1
 _ZNK27YUIIndexOutOfRangeException6dumpOnERSo@Base 3.3.3-1
 _ZNK27YUITooManyChildrenExceptionI7YWidgetE6dumpOnERSo@Base 3.3.3-1
 _ZNK27YUIUnknownPropertyException6dumpOnERSo@Base 3.3.3-1
 _ZNK31YUISetReadOnlyPropertyException6dumpOnERSo@Base 3.3.3-1
 _ZNK32YUIPropertyTypeMismatchException6dumpOnERSo@Base 3.3.3-1
 _ZNK3YUI13eventsBlockedEv@Base 3.3.3-1
 _ZNK5FSize4formENS_4UnitEjjb@Base 3.3.3-1
 _ZNK5FSize8asStringEv@Base 3.3.3-1
 _ZNK5FSize8bestUnitEv@Base 3.3.3-1
 _ZNK5YItem11childrenEndEv@Base 3.3.3-1
 _ZNK5YItem11hasChildrenEv@Base 3.3.3-1
 _ZNK5YItem13childrenBeginEv@Base 3.3.3-1
 _ZNK5YItem6parentEv@Base 3.3.3-1
 _ZNK5YTree11widgetClassEv@Base 3.3.3-1
 _ZNK5YTree13immediateModeEv@Base 3.3.3-1
 _ZNK5YTree17hasMultiSelectionEv@Base 3.3.3-1
 _ZNK6YEmpty11widgetClassEv@Base 3.3.3-1
 _ZNK6YEvent4itemEv@Base 3.3.3-1
 _ZNK6YEvent6widgetEv@Base 3.3.3-1
 _ZNK6YEvent7isValidEv@Base 3.3.3-1
 _ZNK6YFrame11widgetClassEv@Base 3.3.3-1
 _ZNK6YFrame5labelEv@Base 3.3.3-1
 _ZNK6YGraph11widgetClassEv@Base 3.3.3-1
 _ZNK6YGraph13activatedNodeEv@Base 3.3.3-1
 _ZNK6YGraph15layoutAlgorithmEv@Base 3.3.3-1
 _ZNK6YGraph8filenameEv@Base 3.3.3-1
 _ZNK6YImage11hasZeroSizeE12YUIDimension@Base 3.3.3-1
 _ZNK6YImage11widgetClassEv@Base 3.3.3-1
 _ZNK6YImage13imageFileNameEv@Base 3.3.3-1
 _ZNK6YImage8animatedEv@Base 3.3.3-1
 _ZNK6YImage9autoScaleEv@Base 3.3.3-1
 _ZNK6YLabel10debugLabelEv@Base 3.3.3-1
 _ZNK6YLabel11useBoldFontEv@Base 3.3.3-1
 _ZNK6YLabel11widgetClassEv@Base 3.3.3-1
 _ZNK6YLabel13isOutputFieldEv@Base 3.3.3-1
 _ZNK6YLabel4textEv@Base 3.3.3-1
 _ZNK6YLabel9isHeadingEv@Base 3.3.3-1
 _ZNK6YTable11keepSortingEv@Base 3.3.3-1
 _ZNK6YTable11widgetClassEv@Base 3.3.3-1
 _ZNK6YTable13immediateModeEv@Base 3.3.3-1
 _ZNK6YTable17hasMultiSelectionEv@Base 3.3.3-1
 _ZNK6YTable6headerEi@Base 3.3.3-1
 _ZNK6YTable7columnsEv@Base 3.3.3-1
 _ZNK6YTable9alignmentEi@Base 3.3.3-1
 _ZNK6YTable9hasColumnEi@Base 3.3.3-1
 _ZNK7YDialog10dialogTypeEv@Base 3.3.3-1
 _ZNK7YDialog11widgetClassEv@Base 3.3.3-1
 _ZNK7YDialog13defaultButtonEv@Base 3.3.3-1
 _ZNK7YDialog15isTopmostDialogEv@Base 3.3.3-1
 _ZNK7YDialog22shortcutCheckPostponedEv@Base 3.3.3-1
 _ZNK7YDialog6isOpenEv@Base 3.3.3-1
 _ZNK7YDialog9colorModeEv@Base 3.3.3-1
 _ZNK7YEnvVar7isEqualERKSsb@Base 3.3.3-1
 _ZNK7YEnvVar8containsERKSsb@Base 3.3.3-1
 _ZNK7YSlider11widgetClassEv@Base 3.3.3-1
 _ZNK7YSquash10vertSquashEv@Base 3.3.3-1
 _ZNK7YSquash11stretchableE12YUIDimension@Base 3.3.3-1
 _ZNK7YSquash11widgetClassEv@Base 3.3.3-1
 _ZNK7YSquash9horSquashEv@Base 3.3.3-1
 _ZNK7YWidget10debugLabelEv@Base 3.3.3-1
 _ZNK7YWidget10findWidgetEP9YWidgetIDb@Base 3.3.3-1
 _ZNK7YWidget11functionKeyEv@Base 3.3.3-1
 _ZNK7YWidget11stretchableE12YUIDimension@Base 3.3.3-1
 _ZNK7YWidget11widgetClassEv@Base 3.3.3-1
 _ZNK7YWidget12autoShortcutEv@Base 3.3.3-1
 _ZNK7YWidget13sendKeyEventsEv@Base 3.3.3-1
 _ZNK7YWidget14beingDestroyedEv@Base 3.3.3-1
 _ZNK7YWidget14hasFunctionKeyEv@Base 3.3.3-1
 _ZNK7YWidget14shortcutStringEv@Base 3.3.3-1
 _ZNK7YWidget15childrenManagerEv@Base 3.3.3-1
 _ZNK7YWidget17notifyContextMenuEv@Base 3.3.3-1
 _ZNK7YWidget2idEv@Base 3.3.3-1
 _ZNK7YWidget5hasIdEv@Base 3.3.3-1
 _ZNK7YWidget6notifyEv@Base 3.3.3-1
 _ZNK7YWidget6parentEv@Base 3.3.3-1
 _ZNK7YWidget7isValidEv@Base 3.3.3-1
 _ZNK7YWidget8helpTextEv@Base 3.3.3-1
 _ZNK7YWidget9hasParentEv@Base 3.3.3-1
 _ZNK7YWidget9isEnabledEv@Base 3.3.3-1
 _ZNK7YWidget9widgetRepEv@Base 3.3.3-1
 _ZNK7YWizard10wizardModeEv@Base 3.3.3-1
 _ZNK7YWizard11widgetClassEv@Base 3.3.3-1
 _ZNK7YWizard21nextButtonIsProtectedEv@Base 3.3.3-1
 _ZNK8YDumbTab10debugLabelEv@Base 3.3.3-1
 _ZNK8YDumbTab11stretchableE12YUIDimension@Base 3.3.3-1
 _ZNK8YDumbTab11widgetClassEv@Base 3.3.3-1
 _ZNK8YDumbTab14shortcutStringEv@Base 3.3.3-1
 _ZNK8YLogView11widgetClassEv@Base 3.3.3-1
 _ZNK8YLogView12visibleLinesEv@Base 3.3.3-1
 _ZNK8YLogView14shortcutStringEv@Base 3.3.3-1
 _ZNK8YLogView5labelEv@Base 3.3.3-1
 _ZNK8YLogView5linesEv@Base 3.3.3-1
 _ZNK8YLogView7logTextEv@Base 3.3.3-1
 _ZNK8YLogView8lastLineEv@Base 3.3.3-1
 _ZNK8YLogView8maxLinesEv@Base 3.3.3-1
 _ZNK8YSpacing11widgetClassEv@Base 3.3.3-1
 _ZNK8YSpacing4sizeE12YUIDimension@Base 3.3.3-1
 _ZNK8YSpacing4sizeEv@Base 3.3.3-1
 _ZNK8YSpacing9dimensionEv@Base 3.3.3-1
 _ZNK9YBarGraph11widgetClassEv@Base 3.3.3-1
 _ZNK9YBarGraph7segmentEi@Base 3.3.3-1
 _ZNK9YCheckBox11useBoldFontEv@Base 3.3.3-1
 _ZNK9YCheckBox11widgetClassEv@Base 3.3.3-1
 _ZNK9YCheckBox14shortcutStringEv@Base 3.3.3-1
 _ZNK9YCheckBox5labelEv@Base 3.3.3-1
 _ZNK9YComboBox11widgetClassEv@Base 3.3.3-1
 _ZNK9YComboBox14inputMaxLengthEv@Base 3.3.3-1
 _ZNK9YComboBox8editableEv@Base 3.3.3-1
 _ZNK9YIntField11widgetClassEv@Base 3.3.3-1
 _ZNK9YIntField12enforceRangeEi@Base 3.3.3-1
 _ZNK9YIntField14shortcutStringEv@Base 3.3.3-1
 _ZNK9YIntField5labelEv@Base 3.3.3-1
 _ZNK9YIntField8maxValueEv@Base 3.3.3-1
 _ZNK9YIntField8minValueEv@Base 3.3.3-1
 _ZNK9YMenuItem6parentEv@Base 3.3.3-1
 _ZNK9YRichText10shrinkableEv@Base 3.3.3-1
 _ZNK9YRichText11widgetClassEv@Base 3.3.3-1
 _ZNK9YRichText13plainTextModeEv@Base 3.3.3-1
 _ZNK9YRichText14autoScrollDownEv@Base 3.3.3-1
 _ZNK9YRichText5valueEv@Base 3.3.3-1
 _ZNK9YTreeItem11childrenEndEv@Base 3.3.3-1
 _ZNK9YTreeItem11hasChildrenEv@Base 3.3.3-1
 _ZNK9YTreeItem13childrenBeginEv@Base 3.3.3-1
 _ZNK9YTreeItem6isOpenEv@Base 3.3.3-1
 _ZNK9YTreeItem6parentEv@Base 3.3.3-1
 _ZNK9YUIPlugin17pluginLibFullPathEv@Base 3.3.3-1
 _ZNK9YUIPlugin5errorEv@Base 3.3.3-1
 _ZNK9YUIPlugin7successEv@Base 3.3.3-1
 _ZNK9YUIPlugin8errorMsgEv@Base 3.3.3-1
 _ZNSt11_Deque_baseIP7YDialogSaIS1_EE17_M_initialize_mapEm@Base 3.3.3-1
 _ZNSt11_Deque_baseIP7YDialogSaIS1_EED1Ev@Base 3.3.3-1
 _ZNSt11_Deque_baseIP7YDialogSaIS1_EED2Ev@Base 3.3.3-1
 _ZNSt15basic_stringbufIcSt11char_traitsIcESaIcEED0Ev@Base 3.3.3-1
 _ZNSt15basic_stringbufIcSt11char_traitsIcESaIcEED1Ev@Base 3.3.3-1
 _ZNSt15basic_stringbufIcSt11char_traitsIcESaIcEED2Ev@Base 3.3.3-1
 _ZNSt3mapISsP16YExternalWidgetsSt4lessISsESaISt4pairIKSsS1_EEED1Ev@Base 3.3.3-1
 _ZNSt3mapISsP16YExternalWidgetsSt4lessISsESaISt4pairIKSsS1_EEED2Ev@Base 3.3.3-1
 _ZNSt5dequeIP7YDialogSaIS1_EE16_M_push_back_auxIIRKS1_EEEvDpOT_@Base 3.3.3-1
 _ZNSt5dequeIP7YDialogSaIS1_EE16_M_push_back_auxIJRKS1_EEEvDpOT_@Base 3.3.3-1
 _ZNSt5dequeISsSaISsEE16_M_push_back_auxIIRKSsEEEvDpOT_@Base 3.3.3-1
 _ZNSt5dequeISsSaISsEE16_M_push_back_auxIJRKSsEEEvDpOT_@Base 3.3.3-1
 _ZNSt5stackIP7YDialogSt5dequeIS1_SaIS1_EEED1Ev@Base 3.3.3-1
 _ZNSt5stackIP7YDialogSt5dequeIS1_SaIS1_EEED2Ev@Base 3.3.3-1
 _ZNSt6vectorI14YAlignmentTypeSaIS0_EE19_M_emplace_back_auxIIRKS0_EEEvDpOT_@Base 3.3.3-1
 _ZNSt6vectorI14YAlignmentTypeSaIS0_EE19_M_emplace_back_auxIJRKS0_EEEvDpOT_@Base 3.3.3-1
 _ZNSt6vectorI16YBarGraphSegmentSaIS0_EE19_M_emplace_back_auxIIRKS0_EEEvDpOT_@Base 3.3.3-1
 _ZNSt6vectorI16YBarGraphSegmentSaIS0_EE19_M_emplace_back_auxIJRKS0_EEEvDpOT_@Base 3.3.3-1
 _ZNSt6vectorI9YPropertySaIS0_EE19_M_emplace_back_auxIIRKS0_EEEvDpOT_@Base 3.3.3-1
 _ZNSt6vectorI9YPropertySaIS0_EE19_M_emplace_back_auxIJRKS0_EEEvDpOT_@Base 3.3.3-1
 _ZNSt6vectorIP10YTableCellSaIS1_EE19_M_emplace_back_auxIIRKS1_EEEvDpOT_@Base 3.3.3-1
 _ZNSt6vectorIP10YTableCellSaIS1_EE19_M_emplace_back_auxIJRKS1_EEEvDpOT_@Base 3.3.3-1
 _ZNSt6vectorIP11YPushButtonSaIS1_EE19_M_emplace_back_auxIIRKS1_EEEvDpOT_@Base 3.3.3-1
 _ZNSt6vectorIP11YPushButtonSaIS1_EE19_M_emplace_back_auxIJRKS1_EEEvDpOT_@Base 3.3.3-1
 _ZNSt6vectorIP17YPerThreadLogInfoSaIS1_EE19_M_emplace_back_auxIIRKS1_EEEvDpOT_@Base 3.3.3-1
 _ZNSt6vectorIP17YPerThreadLogInfoSaIS1_EE19_M_emplace_back_auxIJRKS1_EEEvDpOT_@Base 3.3.3-1
 _ZNSt6vectorIP5YItemSaIS1_EE19_M_emplace_back_auxIIRKS1_EEEvDpOT_@Base 3.3.3-1
 _ZNSt6vectorIP5YItemSaIS1_EE19_M_emplace_back_auxIIS1_EEEvDpOT_@Base 3.3.3-1
 _ZNSt6vectorIP5YItemSaIS1_EE19_M_emplace_back_auxIJRKS1_EEEvDpOT_@Base 3.3.3-1
 _ZNSt6vectorIP5YItemSaIS1_EE19_M_emplace_back_auxIJS1_EEEvDpOT_@Base 3.3.3-1
 _ZNSt6vectorIP5YItemSaIS1_EE7reserveEm@Base 3.3.3-1
 _ZNSt6vectorIP5YItemSaIS1_EED1Ev@Base 3.3.3-1
 _ZNSt6vectorIP5YItemSaIS1_EED2Ev@Base 3.3.3-1
 _ZNSt6vectorIP9YMenuItemSaIS1_EE19_M_emplace_back_auxIIRKS1_EEEvDpOT_@Base 3.3.3-1
 _ZNSt6vectorIP9YMenuItemSaIS1_EE19_M_emplace_back_auxIJRKS1_EEEvDpOT_@Base 3.3.3-1
 _ZNSt6vectorIP9YShortcutSaIS1_EE19_M_emplace_back_auxIIRKS1_EEEvDpOT_@Base 3.3.3-1
 _ZNSt6vectorIP9YShortcutSaIS1_EE19_M_emplace_back_auxIIS1_EEEvDpOT_@Base 3.3.3-1
 _ZNSt6vectorIP9YShortcutSaIS1_EE19_M_emplace_back_auxIJRKS1_EEEvDpOT_@Base 3.3.3-1
 _ZNSt6vectorIP9YShortcutSaIS1_EE19_M_emplace_back_auxIJS1_EEEvDpOT_@Base 3.3.3-1
 _ZNSt6vectorISsSaISsEE19_M_emplace_back_auxIIRKSsEEEvDpOT_@Base 3.3.3-1
 _ZNSt6vectorISsSaISsEE19_M_emplace_back_auxIISsEEEvDpOT_@Base 3.3.3-1
 _ZNSt6vectorISsSaISsEE19_M_emplace_back_auxIJRKSsEEEvDpOT_@Base 3.3.3-1
 _ZNSt6vectorISsSaISsEE19_M_emplace_back_auxIJSsEEEvDpOT_@Base 3.3.3-1
 _ZNSt6vectorISsSaISsEED1Ev@Base 3.3.3-1
 _ZNSt6vectorISsSaISsEED2Ev@Base 3.3.3-1
 _ZNSt8_Rb_treeISsSt4pairIKSsP16YExternalWidgetsESt10_Select1stIS4_ESt4lessISsESaIS4_EE22_M_emplace_hint_uniqueIIRKSt21piecewise_construct_tSt5tupleIIRS1_EESF_IIEEEEESt17_Rb_tree_iteratorIS4_ESt23_Rb_tree_const_iteratorIS4_EDpOT_@Base 3.3.3-1
 _ZNSt8_Rb_treeISsSt4pairIKSsP16YExternalWidgetsESt10_Select1stIS4_ESt4lessISsESaIS4_EE22_M_emplace_hint_uniqueIJRKSt21piecewise_construct_tSt5tupleIJRS1_EESF_IJEEEEESt17_Rb_tree_iteratorIS4_ESt23_Rb_tree_const_iteratorIS4_EDpOT_@Base 3.3.3-1
 _ZNSt8_Rb_treeISsSt4pairIKSsP16YExternalWidgetsESt10_Select1stIS4_ESt4lessISsESaIS4_EE24_M_get_insert_unique_posERS1_@Base 3.3.3-1
 _ZNSt8_Rb_treeISsSt4pairIKSsP16YExternalWidgetsESt10_Select1stIS4_ESt4lessISsESaIS4_EE7_M_copyEPKSt13_Rb_tree_nodeIS4_EPSC_@Base 3.3.3-1
 _ZNSt8_Rb_treeISsSt4pairIKSsP16YExternalWidgetsESt10_Select1stIS4_ESt4lessISsESaIS4_EE8_M_eraseEPSt13_Rb_tree_nodeIS4_E@Base 3.3.3-1
 _ZNSt8_Rb_treeISsSt4pairIKSsSsESt10_Select1stIS2_ESt4lessISsESaIS2_EE22_M_emplace_hint_uniqueIIRKSt21piecewise_construct_tSt5tupleIIRS1_EESD_IIEEEEESt17_Rb_tree_iteratorIS2_ESt23_Rb_tree_const_iteratorIS2_EDpOT_@Base 3.3.3-1
 _ZNSt8_Rb_treeISsSt4pairIKSsSsESt10_Select1stIS2_ESt4lessISsESaIS2_EE22_M_emplace_hint_uniqueIJRKSt21piecewise_construct_tSt5tupleIJRS1_EESD_IJEEEEESt17_Rb_tree_iteratorIS2_ESt23_Rb_tree_const_iteratorIS2_EDpOT_@Base 3.3.3-1
 _ZNSt8_Rb_treeISsSt4pairIKSsSsESt10_Select1stIS2_ESt4lessISsESaIS2_EE24_M_get_insert_unique_posERS1_@Base 3.3.3-1
 _ZNSt8_Rb_treeISsSt4pairIKSsSsESt10_Select1stIS2_ESt4lessISsESaIS2_EE7_M_copyEPKSt13_Rb_tree_nodeIS2_EPSA_@Base 3.3.3-1
 _ZNSt8_Rb_treeISsSt4pairIKSsSsESt10_Select1stIS2_ESt4lessISsESaIS2_EE8_M_eraseEPSt13_Rb_tree_nodeIS2_E@Base 3.3.3-1
 _ZNSt8_Rb_treeISsSt4pairIKSsiESt10_Select1stIS2_ESt4lessISsESaIS2_EE24_M_get_insert_unique_posERS1_@Base 3.3.3-1
 _ZNSt8_Rb_treeISsSt4pairIKSsiESt10_Select1stIS2_ESt4lessISsESaIS2_EE29_M_get_insert_hint_unique_posESt23_Rb_tree_const_iteratorIS2_ERS1_@Base 3.3.3-1
 _ZNSt8_Rb_treeISsSt4pairIKSsiESt10_Select1stIS2_ESt4lessISsESaIS2_EE8_M_eraseEPSt13_Rb_tree_nodeIS2_E@Base 3.3.3-1
 _ZStplIcSt11char_traitsIcESaIcEESbIT_T0_T1_EPKS3_RKS6_@Base 3.3.3-1
 _ZTI10YAlignment@Base 3.3.3-1
 _ZTI10YButtonBox@Base 3.3.3-1
 _ZTI10YDateField@Base 3.3.3-1
 _ZTI10YDialogSpy@Base 3.3.3-1
 _ZTI10YLayoutBox@Base 3.3.3-1
 _ZTI10YTableCell@Base 3.3.3-1
 _ZTI10YTableItem@Base 3.3.3-1
 _ZTI10YTimeField@Base 3.3.3-1
 _ZTI11YInputField@Base 3.3.3-1
 _ZTI11YMenuButton@Base 3.3.3-1
 _ZTI11YPushButton@Base 3.3.3-1
 _ZTI11YStringTree@Base 3.3.3-1
 _ZTI12YApplication@Base 3.3.3-1
 _ZTI12YContextMenu@Base 3.3.3-1
 _ZTI12YEventFilter@Base 3.3.3-1
 _ZTI12YProgressBar@Base 3.3.3-1
 _ZTI12YRadioButton@Base 3.3.3-1
 _ZTI12YTableHeader@Base 3.3.3-1
 _ZTI12YUIException@Base 3.3.3-1
 _ZTI12YUILogBuffer@Base 3.3.3-1
 _ZTI12YWidgetEvent@Base 3.3.3-1
 _ZTI13YItemShortcut@Base 3.3.3-1
 _ZTI13YReplacePoint@Base 3.3.3-1
 _ZTI13YSelectionBox@Base 3.3.3-1
 _ZTI14SortedTreeItemI10YTransTextE@Base 3.3.3-1
 _ZTI14YBusyIndicator@Base 3.3.3-1
 _ZTI14YCheckBoxFrame@Base 3.3.3-1
 _ZTI14YMultiLineEdit@Base 3.3.3-1
 _ZTI14YRpmGroupsTree@Base 3.3.3-1
 _ZTI14YWidgetFactory@Base 3.3.3-1
 _ZTI15YPropertyEditor@Base 3.3.3-1
 _ZTI15YStringWidgetID@Base 3.3.3-1
 _ZTI15YWidgetTreeItem@Base 3.3.3-1
 _ZTI16YChildrenManagerI7YWidgetE@Base 3.3.3-1
 _ZTI16YExternalWidgets@Base 3.3.3-1
 _ZTI16YPackageSelector@Base 3.3.3-1
 _ZTI16YSelectionWidget@Base 3.3.3-1
 _ZTI16YShortcutManager@Base 3.3.3-1
 _ZTI17YChildrenRejectorI7YWidgetE@Base 3.3.3-1
 _ZTI17YDownloadProgress@Base 3.3.3-1
 _ZTI17YRadioButtonGroup@Base 3.3.3-1
 _ZTI17YSimpleInputField@Base 3.3.3-1
 _ZTI17YTimezoneSelector@Base 3.3.3-1
 _ZTI18YHelpButtonHandler@Base 3.3.3-1
 _ZTI18YMultiSelectionBox@Base 3.3.3-1
 _ZTI18YPartitionSplitter@Base 3.3.3-1
 _ZTI18YUIPluginException@Base 3.3.3-1
 _ZTI19YMultiProgressMeter@Base 3.3.3-1
 _ZTI19YSimpleEventHandler@Base 3.3.3-1
 _ZTI19YSingleChildManagerI7YWidgetE@Base 3.3.3-1
 _ZTI20YUINoDialogException@Base 3.3.3-1
 _ZTI20YUIPropertyException@Base 3.3.3-1
 _ZTI22YOptionalWidgetFactory@Base 3.3.3-1
 _ZTI22YRelNotesButtonHandler@Base 3.3.3-1
 _ZTI23YUINullPointerException@Base 3.3.3-1
 _ZTI23YUIOutOfMemoryException@Base 3.3.3-1
 _ZTI24YUIInvalidChildExceptionI7YWidgetE@Base 3.3.3-1
 _ZTI25YUICantLoadAnyUIException@Base 3.3.3-1
 _ZTI25YUIInvalidWidgetException@Base 3.3.3-1
 _ZTI26YUIBadPropertyArgException@Base 3.3.3-1
 _ZTI26YUIWidgetNotFoundException@Base 3.3.3-1
 _ZTI27YSingleChildContainerWidget@Base 3.3.3-1
 _ZTI27YUIIndexOutOfRangeException@Base 3.3.3-1
 _ZTI27YUITooManyChildrenExceptionI7YWidgetE@Base 3.3.3-1
 _ZTI27YUIUnknownPropertyException@Base 3.3.3-1
 _ZTI28YUIInvalidDimensionException@Base 3.3.3-1
 _ZTI29YUIUnsupportedWidgetException@Base 3.3.3-1
 _ZTI30YUIButtonRoleMismatchException@Base 3.3.3-1
 _ZTI31YUIDialogStackingOrderException@Base 3.3.3-1
 _ZTI31YUISetReadOnlyPropertyException@Base 3.3.3-1
 _ZTI32YUIPropertyTypeMismatchException@Base 3.3.3-1
 _ZTI3YUI@Base 3.3.3-1
 _ZTI5YItem@Base 3.3.3-1
 _ZTI5YTree@Base 3.3.3-1
 _ZTI6YEmpty@Base 3.3.3-1
 _ZTI6YEvent@Base 3.3.3-1
 _ZTI6YFrame@Base 3.3.3-1
 _ZTI6YGraph@Base 3.3.3-1
 _ZTI6YImage@Base 3.3.3-1
 _ZTI6YLabel@Base 3.3.3-1
 _ZTI6YTable@Base 3.3.3-1
 _ZTI7YDialog@Base 3.3.3-1
 _ZTI7YSlider@Base 3.3.3-1
 _ZTI7YSquash@Base 3.3.3-1
 _ZTI7YWidget@Base 3.3.3-1
 _ZTI7YWizard@Base 3.3.3-1
 _ZTI8TreeItemI10YTransTextE@Base 3.3.3-1
 _ZTI8YDumbTab@Base 3.3.3-1
 _ZTI8YLogView@Base 3.3.3-1
 _ZTI8YSpacing@Base 3.3.3-1
 _ZTI9YBarGraph@Base 3.3.3-1
 _ZTI9YCheckBox@Base 3.3.3-1
 _ZTI9YComboBox@Base 3.3.3-1
 _ZTI9YIntField@Base 3.3.3-1
 _ZTI9YKeyEvent@Base 3.3.3-1
 _ZTI9YMenuItem@Base 3.3.3-1
 _ZTI9YRichText@Base 3.3.3-1
 _ZTI9YShortcut@Base 3.3.3-1
 _ZTI9YTreeItem@Base 3.3.3-1
 _ZTI9YUIPlugin@Base 3.3.3-1
 _ZTI9YWidgetID@Base 3.3.3-1
 _ZTS10YAlignment@Base 3.3.3-1
 _ZTS10YButtonBox@Base 3.3.3-1
 _ZTS10YDateField@Base 3.3.3-1
 _ZTS10YDialogSpy@Base 3.3.3-1
 _ZTS10YLayoutBox@Base 3.3.3-1
 _ZTS10YTableCell@Base 3.3.3-1
 _ZTS10YTableItem@Base 3.3.3-1
 _ZTS10YTimeField@Base 3.3.3-1
 _ZTS11YInputField@Base 3.3.3-1
 _ZTS11YMenuButton@Base 3.3.3-1
 _ZTS11YPushButton@Base 3.3.3-1
 _ZTS11YStringTree@Base 3.3.3-1
 _ZTS12YApplication@Base 3.3.3-1
 _ZTS12YContextMenu@Base 3.3.3-1
 _ZTS12YEventFilter@Base 3.3.3-1
 _ZTS12YProgressBar@Base 3.3.3-1
 _ZTS12YRadioButton@Base 3.3.3-1
 _ZTS12YTableHeader@Base 3.3.3-1
 _ZTS12YUIException@Base 3.3.3-1
 _ZTS12YUILogBuffer@Base 3.3.3-1
 _ZTS12YWidgetEvent@Base 3.3.3-1
 _ZTS13YItemShortcut@Base 3.3.3-1
 _ZTS13YReplacePoint@Base 3.3.3-1
 _ZTS13YSelectionBox@Base 3.3.3-1
 _ZTS14SortedTreeItemI10YTransTextE@Base 3.3.3-1
 _ZTS14YBusyIndicator@Base 3.3.3-1
 _ZTS14YCheckBoxFrame@Base 3.3.3-1
 _ZTS14YMultiLineEdit@Base 3.3.3-1
 _ZTS14YRpmGroupsTree@Base 3.3.3-1
 _ZTS14YWidgetFactory@Base 3.3.3-1
 _ZTS15YPropertyEditor@Base 3.3.3-1
 _ZTS15YStringWidgetID@Base 3.3.3-1
 _ZTS15YWidgetTreeItem@Base 3.3.3-1
 _ZTS16YChildrenManagerI7YWidgetE@Base 3.3.3-1
 _ZTS16YExternalWidgets@Base 3.3.3-1
 _ZTS16YPackageSelector@Base 3.3.3-1
 _ZTS16YSelectionWidget@Base 3.3.3-1
 _ZTS16YShortcutManager@Base 3.3.3-1
 _ZTS17YChildrenRejectorI7YWidgetE@Base 3.3.3-1
 _ZTS17YDownloadProgress@Base 3.3.3-1
 _ZTS17YRadioButtonGroup@Base 3.3.3-1
 _ZTS17YSimpleInputField@Base 3.3.3-1
 _ZTS17YTimezoneSelector@Base 3.3.3-1
 _ZTS18YHelpButtonHandler@Base 3.3.3-1
 _ZTS18YMultiSelectionBox@Base 3.3.3-1
 _ZTS18YPartitionSplitter@Base 3.3.3-1
 _ZTS18YUIPluginException@Base 3.3.3-1
 _ZTS19YMultiProgressMeter@Base 3.3.3-1
 _ZTS19YSimpleEventHandler@Base 3.3.3-1
 _ZTS19YSingleChildManagerI7YWidgetE@Base 3.3.3-1
 _ZTS20YUINoDialogException@Base 3.3.3-1
 _ZTS20YUIPropertyException@Base 3.3.3-1
 _ZTS22YOptionalWidgetFactory@Base 3.3.3-1
 _ZTS22YRelNotesButtonHandler@Base 3.3.3-1
 _ZTS23YUINullPointerException@Base 3.3.3-1
 _ZTS23YUIOutOfMemoryException@Base 3.3.3-1
 _ZTS24YUIInvalidChildExceptionI7YWidgetE@Base 3.3.3-1
 _ZTS25YUICantLoadAnyUIException@Base 3.3.3-1
 _ZTS25YUIInvalidWidgetException@Base 3.3.3-1
 _ZTS26YUIBadPropertyArgException@Base 3.3.3-1
 _ZTS26YUIWidgetNotFoundException@Base 3.3.3-1
 _ZTS27YSingleChildContainerWidget@Base 3.3.3-1
 _ZTS27YUIIndexOutOfRangeException@Base 3.3.3-1
 _ZTS27YUITooManyChildrenExceptionI7YWidgetE@Base 3.3.3-1
 _ZTS27YUIUnknownPropertyException@Base 3.3.3-1
 _ZTS28YUIInvalidDimensionException@Base 3.3.3-1
 _ZTS29YUIUnsupportedWidgetException@Base 3.3.3-1
 _ZTS30YUIButtonRoleMismatchException@Base 3.3.3-1
 _ZTS31YUIDialogStackingOrderException@Base 3.3.3-1
 _ZTS31YUISetReadOnlyPropertyException@Base 3.3.3-1
 _ZTS32YUIPropertyTypeMismatchException@Base 3.3.3-1
 _ZTS3YUI@Base 3.3.3-1
 _ZTS5YItem@Base 3.3.3-1
 _ZTS5YTree@Base 3.3.3-1
 _ZTS6YEmpty@Base 3.3.3-1
 _ZTS6YEvent@Base 3.3.3-1
 _ZTS6YFrame@Base 3.3.3-1
 _ZTS6YGraph@Base 3.3.3-1
 _ZTS6YImage@Base 3.3.3-1
 _ZTS6YLabel@Base 3.3.3-1
 _ZTS6YTable@Base 3.3.3-1
 _ZTS7YDialog@Base 3.3.3-1
 _ZTS7YSlider@Base 3.3.3-1
 _ZTS7YSquash@Base 3.3.3-1
 _ZTS7YWidget@Base 3.3.3-1
 _ZTS7YWizard@Base 3.3.3-1
 _ZTS8TreeItemI10YTransTextE@Base 3.3.3-1
 _ZTS8YDumbTab@Base 3.3.3-1
 _ZTS8YLogView@Base 3.3.3-1
 _ZTS8YSpacing@Base 3.3.3-1
 _ZTS9YBarGraph@Base 3.3.3-1
 _ZTS9YCheckBox@Base 3.3.3-1
 _ZTS9YComboBox@Base 3.3.3-1
 _ZTS9YIntField@Base 3.3.3-1
 _ZTS9YKeyEvent@Base 3.3.3-1
 _ZTS9YMenuItem@Base 3.3.3-1
 _ZTS9YRichText@Base 3.3.3-1
 _ZTS9YShortcut@Base 3.3.3-1
 _ZTS9YTreeItem@Base 3.3.3-1
 _ZTS9YUIPlugin@Base 3.3.3-1
 _ZTS9YWidgetID@Base 3.3.3-1
 _ZTV10YAlignment@Base 3.3.3-1
 _ZTV10YButtonBox@Base 3.3.3-1
 _ZTV10YDateField@Base 3.3.3-1
 _ZTV10YDialogSpy@Base 3.3.3-1
 _ZTV10YLayoutBox@Base 3.3.3-1
 _ZTV10YTableCell@Base 3.3.3-1
 _ZTV10YTableItem@Base 3.3.3-1
 _ZTV10YTimeField@Base 3.3.3-1
 _ZTV11YInputField@Base 3.3.3-1
 _ZTV11YMenuButton@Base 3.3.3-1
 _ZTV11YPushButton@Base 3.3.3-1
 _ZTV11YStringTree@Base 3.3.3-1
 _ZTV12YApplication@Base 3.3.3-1
 _ZTV12YContextMenu@Base 3.3.3-1
 _ZTV12YEventFilter@Base 3.3.3-1
 _ZTV12YProgressBar@Base 3.3.3-1
 _ZTV12YRadioButton@Base 3.3.3-1
 _ZTV12YTableHeader@Base 3.3.3-1
 _ZTV12YUIException@Base 3.3.3-1
 _ZTV12YUILogBuffer@Base 3.3.3-1
 _ZTV12YWidgetEvent@Base 3.3.3-1
 _ZTV13YItemShortcut@Base 3.3.3-1
 _ZTV13YReplacePoint@Base 3.3.3-1
 _ZTV13YSelectionBox@Base 3.3.3-1
 _ZTV14SortedTreeItemI10YTransTextE@Base 3.3.3-1
 _ZTV14YBusyIndicator@Base 3.3.3-1
 _ZTV14YCheckBoxFrame@Base 3.3.3-1
 _ZTV14YMultiLineEdit@Base 3.3.3-1
 _ZTV14YRpmGroupsTree@Base 3.3.3-1
 _ZTV14YWidgetFactory@Base 3.3.3-1
 _ZTV15YPropertyEditor@Base 3.3.3-1
 _ZTV15YStringWidgetID@Base 3.3.3-1
 _ZTV15YWidgetTreeItem@Base 3.3.3-1
 _ZTV16YChildrenManagerI7YWidgetE@Base 3.3.3-1
 _ZTV16YExternalWidgets@Base 3.3.3-1
 _ZTV16YPackageSelector@Base 3.3.3-1
 _ZTV16YSelectionWidget@Base 3.3.3-1
 _ZTV16YShortcutManager@Base 3.3.3-1
 _ZTV17YChildrenRejectorI7YWidgetE@Base 3.3.3-1
 _ZTV17YDownloadProgress@Base 3.3.3-1
 _ZTV17YRadioButtonGroup@Base 3.3.3-1
 _ZTV17YSimpleInputField@Base 3.3.3-1
 _ZTV17YTimezoneSelector@Base 3.3.3-1
 _ZTV18YHelpButtonHandler@Base 3.3.3-1
 _ZTV18YMultiSelectionBox@Base 3.3.3-1
 _ZTV18YPartitionSplitter@Base 3.3.3-1
 _ZTV18YUIPluginException@Base 3.3.3-1
 _ZTV19YMultiProgressMeter@Base 3.3.3-1
 _ZTV19YSimpleEventHandler@Base 3.3.3-1
 _ZTV19YSingleChildManagerI7YWidgetE@Base 3.3.3-1
 _ZTV20YUINoDialogException@Base 3.3.3-1
 _ZTV20YUIPropertyException@Base 3.3.3-1
 _ZTV22YOptionalWidgetFactory@Base 3.3.3-1
 _ZTV22YRelNotesButtonHandler@Base 3.3.3-1
 _ZTV23YUINullPointerException@Base 3.3.3-1
 _ZTV23YUIOutOfMemoryException@Base 3.3.3-1
 _ZTV24YUIInvalidChildExceptionI7YWidgetE@Base 3.3.3-1
 _ZTV25YUICantLoadAnyUIException@Base 3.3.3-1
 _ZTV25YUIInvalidWidgetException@Base 3.3.3-1
 _ZTV26YUIBadPropertyArgException@Base 3.3.3-1
 _ZTV26YUIWidgetNotFoundException@Base 3.3.3-1
 _ZTV27YSingleChildContainerWidget@Base 3.3.3-1
 _ZTV27YUIIndexOutOfRangeException@Base 3.3.3-1
 _ZTV27YUITooManyChildrenExceptionI7YWidgetE@Base 3.3.3-1
 _ZTV27YUIUnknownPropertyException@Base 3.3.3-1
 _ZTV28YUIInvalidDimensionException@Base 3.3.3-1
 _ZTV29YUIUnsupportedWidgetException@Base 3.3.3-1
 _ZTV30YUIButtonRoleMismatchException@Base 3.3.3-1
 _ZTV31YUIDialogStackingOrderException@Base 3.3.3-1
 _ZTV31YUISetReadOnlyPropertyException@Base 3.3.3-1
 _ZTV32YUIPropertyTypeMismatchException@Base 3.3.3-1
 _ZTV3YUI@Base 3.3.3-1
 _ZTV5YItem@Base 3.3.3-1
 _ZTV5YTree@Base 3.3.3-1
 _ZTV6YEmpty@Base 3.3.3-1
 _ZTV6YEvent@Base 3.3.3-1
 _ZTV6YFrame@Base 3.3.3-1
 _ZTV6YGraph@Base 3.3.3-1
 _ZTV6YImage@Base 3.3.3-1
 _ZTV6YLabel@Base 3.3.3-1
 _ZTV6YTable@Base 3.3.3-1
 _ZTV7YDialog@Base 3.3.3-1
 _ZTV7YSlider@Base 3.3.3-1
 _ZTV7YSquash@Base 3.3.3-1
 _ZTV7YWidget@Base 3.3.3-1
 _ZTV7YWizard@Base 3.3.3-1
 _ZTV8TreeItemI10YTransTextE@Base 3.3.3-1
 _ZTV8YDumbTab@Base 3.3.3-1
 _ZTV8YLogView@Base 3.3.3-1
 _ZTV8YSpacing@Base 3.3.3-1
 _ZTV9YBarGraph@Base 3.3.3-1
 _ZTV9YCheckBox@Base 3.3.3-1
 _ZTV9YComboBox@Base 3.3.3-1
 _ZTV9YIntField@Base 3.3.3-1
 _ZTV9YKeyEvent@Base 3.3.3-1
 _ZTV9YMenuItem@Base 3.3.3-1
 _ZTV9YRichText@Base 3.3.3-1
 _ZTV9YShortcut@Base 3.3.3-1
 _ZTV9YTreeItem@Base 3.3.3-1
 _ZTV9YUIPlugin@Base 3.3.3-1
 _ZTV9YWidgetID@Base 3.3.3-1
 _ZlsRSo11YButtonRole@Base 3.3.3-1
 _ZlsRSo7YEnvVar@Base 3.3.3-1
 _ZlsRSoPK6YEvent@Base 3.3.3-1
 _ZlsRSoPK7YWidget@Base 3.3.3-1
 _ZlsRSoPK9YWidgetID@Base 3.3.3-1
 _ZlsRSoRK12YUIException@Base 3.3.3-1
 _ZlsRSoRK13YCodeLocation@Base 3.3.3-1
