libyui-ncurses.so.8 libyui-ncurses2 #MINVER#
 NCBusyIndicatorObject@Base 2.48.3-1
 _Z10_YUI_THROWI12YUIExceptionEvRKT_RK13YCodeLocation@Base 2.48.3-1
 _Z10_YUI_THROWI18YUIPluginExceptionEvRKT_RK13YCodeLocation@Base 2.48.3-1
 _Z10_YUI_THROWI23YUINullPointerExceptionEvRKT_RK13YCodeLocation@Base 2.48.3-1
 _Z10_YUI_THROWI23YUIOutOfMemoryExceptionEvRKT_RK13YCodeLocation@Base 2.48.3-1
 _Z13NCDefineStyleR7NCstyle@Base 2.48.3-1
 _Z16NCstyleInit_rxvtRSt6vectorIN7NCstyle5StyleESaIS1_EE@Base 2.48.3-1
 _Z17language2encodingSs@Base 2.48.3-1
 _Z20NCstyleInit_invertedRSt6vectorIN7NCstyle5StyleESaIS1_EE@Base 2.48.3-1
 _Z5frameR13NCursesWindowiiii@Base 2.48.3-1
 _Z8createUIb@Base 2.48.3-1
 _ZGVN5boost9date_time16date_input_facetINS_9gregorian4dateEwSt19istreambuf_iteratorIwSt11char_traitsIwEEE2idE@Base 2.48.3-1
 _ZN10NCCheckBox10setEnabledEb@Base 2.48.3-1
 _ZN10NCCheckBox12wHandleInputEj@Base 2.48.3-1
 _ZN10NCCheckBox14preferredWidthEv@Base 2.48.3-1
 _ZN10NCCheckBox15preferredHeightEv@Base 2.48.3-1
 _ZN10NCCheckBox16setKeyboardFocusEv@Base 2.48.3-1
 _ZN10NCCheckBox5valueEv@Base 2.48.3-1
 _ZN10NCCheckBox7setSizeEii@Base 2.48.3-1
 _ZN10NCCheckBox7wRedrawEv@Base 2.48.3-1
 _ZN10NCCheckBox8setLabelERKSs@Base 2.48.3-1
 _ZN10NCCheckBox8setValueE14YCheckBoxState@Base 2.48.3-1
 _ZN10NCCheckBox8statetagE@Base 2.48.3-1
 _ZN10NCCheckBoxC1EP7YWidgetRKSsb@Base 2.48.3-1
 _ZN10NCCheckBoxC2EP7YWidgetRKSsb@Base 2.48.3-1
 _ZN10NCCheckBoxD0Ev@Base 2.48.3-1
 _ZN10NCCheckBoxD1Ev@Base 2.48.3-1
 _ZN10NCCheckBoxD2Ev@Base 2.48.3-1
 _ZN10NCComboBox10selectItemEP5YItemb@Base 2.48.3-1
 _ZN10NCComboBox10setEnabledEb@Base 2.48.3-1
 _ZN10NCComboBox12wHandleInputEj@Base 2.48.3-1
 _ZN10NCComboBox13setValidCharsERKSs@Base 2.48.3-1
 _ZN10NCComboBox14deleteAllItemsEv@Base 2.48.3-1
 _ZN10NCComboBox14preferredWidthEv@Base 2.48.3-1
 _ZN10NCComboBox14setCurrentItemEi@Base 2.48.3-1
 _ZN10NCComboBox15preferredHeightEv@Base 2.48.3-1
 _ZN10NCComboBox16setKeyboardFocusEv@Base 2.48.3-1
 _ZN10NCComboBox17setInputMaxLengthEi@Base 2.48.3-1
 _ZN10NCComboBox4textEv@Base 2.48.3-1
 _ZN10NCComboBox7addItemEP5YItem@Base 2.48.3-1
 _ZN10NCComboBox7addItemERKSsb@Base 2.48.3-1
 _ZN10NCComboBox7setSizeEii@Base 2.48.3-1
 _ZN10NCComboBox7setTextERKSs@Base 2.48.3-1
 _ZN10NCComboBox7tUpdateEv@Base 2.48.3-1
 _ZN10NCComboBox7wCreateERK5wrect@Base 2.48.3-1
 _ZN10NCComboBox7wDeleteEv@Base 2.48.3-1
 _ZN10NCComboBox7wRedrawEv@Base 2.48.3-1
 _ZN10NCComboBox8setLabelERKSs@Base 2.48.3-1
 _ZN10NCComboBox8wRecodedEv@Base 2.48.3-1
 _ZN10NCComboBox9listPopupEv@Base 2.48.3-1
 _ZN10NCComboBox9setDefszeEv@Base 2.48.3-1
 _ZN10NCComboBoxC1EP7YWidgetRKSsb@Base 2.48.3-1
 _ZN10NCComboBoxC2EP7YWidgetRKSsb@Base 2.48.3-1
 _ZN10NCComboBoxD0Ev@Base 2.48.3-1
 _ZN10NCComboBoxD1Ev@Base 2.48.3-1
 _ZN10NCComboBoxD2Ev@Base 2.48.3-1
 _ZN10NCFileInfoC1ESsP6stat64b@Base 2.48.3-1
 _ZN10NCFileInfoC1Ev@Base 2.48.3-1
 _ZN10NCFileInfoC2ESsP6stat64b@Base 2.48.3-1
 _ZN10NCFileInfoC2Ev@Base 2.48.3-1
 _ZN10NCIntField10enterPopupEw@Base 2.48.3-1
 _ZN10NCIntField10setEnabledEb@Base 2.48.3-1
 _ZN10NCIntField12wHandleInputEj@Base 2.48.3-1
 _ZN10NCIntField14preferredWidthEv@Base 2.48.3-1
 _ZN10NCIntField15preferredHeightEv@Base 2.48.3-1
 _ZN10NCIntField16setKeyboardFocusEv@Base 2.48.3-1
 _ZN10NCIntField16setValueInternalEi@Base 2.48.3-1
 _ZN10NCIntField5valueEv@Base 2.48.3-1
 _ZN10NCIntField6taglenE@Base 2.48.3-1
 _ZN10NCIntField7setSizeEii@Base 2.48.3-1
 _ZN10NCIntField7tUpdateEv@Base 2.48.3-1
 _ZN10NCIntField7wCreateERK5wrect@Base 2.48.3-1
 _ZN10NCIntField7wDeleteEv@Base 2.48.3-1
 _ZN10NCIntField7wRedrawEv@Base 2.48.3-1
 _ZN10NCIntField8setLabelERKSs@Base 2.48.3-1
 _ZN10NCIntField9DecrementEb@Base 2.48.3-1
 _ZN10NCIntField9IncrementEb@Base 2.48.3-1
 _ZN10NCIntField9setDefszeEv@Base 2.48.3-1
 _ZN10NCIntFieldC1EP7YWidgetRKSsiii@Base 2.48.3-1
 _ZN10NCIntFieldC2EP7YWidgetRKSsiii@Base 2.48.3-1
 _ZN10NCIntFieldD0Ev@Base 2.48.3-1
 _ZN10NCIntFieldD1Ev@Base 2.48.3-1
 _ZN10NCIntFieldD2Ev@Base 2.48.3-1
 _ZN10NCRichText10PadSetAttrEv@Base 2.48.3-1
 _ZN10NCRichText10listindentE@Base 2.48.3-1
 _ZN10NCRichText10openAnchorESbIwSt11char_traitsIwESaIwEE@Base 2.48.3-1
 _ZN10NCRichText10setEnabledEb@Base 2.48.3-1
 _ZN10NCRichText11DrawHTMLPadEv@Base 2.48.3-1
 _ZN10NCRichText11PadSetLevelEv@Base 2.48.3-1
 _ZN10NCRichText11_charentityE@Base 2.48.3-1
 _ZN10NCRichText11closeAnchorEv@Base 2.48.3-1
 _ZN10NCRichText11handleInputEj@Base 2.48.3-1
 _ZN10NCRichText12AdjustPrePadEPKw@Base 2.48.3-1
 _ZN10NCRichText12DrawPlainPadEv@Base 2.48.3-1
 _ZN10NCRichText12entityLookupERKSbIwSt11char_traitsIwESaIwEE@Base 2.48.3-1
 _ZN10NCRichText12wHandleInputEj@Base 2.48.3-1
 _ZN10NCRichText13listleveltagsE@Base 2.48.3-1
 _ZN10NCRichText14PadChangeLevelEbi@Base 2.48.3-1
 _ZN10NCRichText14filterEntitiesERKSbIwSt11char_traitsIwESaIwEE@Base 2.48.3-1
 _ZN10NCRichText14preferredWidthEv@Base 2.48.3-1
 _ZN10NCRichText14showLinkTargetE@Base 2.48.3-1
 _ZN10NCRichText15preferredHeightEv@Base 2.48.3-1
 _ZN10NCRichText16setKeyboardFocusEv@Base 2.48.3-1
 _ZN10NCRichText3armEj@Base 2.48.3-1
 _ZN10NCRichText5PadNLEv@Base 2.48.3-1
 _ZN10NCRichText6Anchor4drawER5NCPadmi@Base 2.48.3-1
 _ZN10NCRichText6PadTXTEPKwj@Base 2.48.3-1
 _ZN10NCRichText7DrawPadEv@Base 2.48.3-1
 _ZN10NCRichText7HScrollEjjj@Base 2.48.3-1
 _ZN10NCRichText7VScrollEjjj@Base 2.48.3-1
 _ZN10NCRichText7setSizeEii@Base 2.48.3-1
 _ZN10NCRichText7wRedrawEv@Base 2.48.3-1
 _ZN10NCRichText8PadTOKENEPKwRS1_@Base 2.48.3-1
 _ZN10NCRichText8setLabelERKSs@Base 2.48.3-1
 _ZN10NCRichText8setValueERKSs@Base 2.48.3-1
 _ZN10NCRichText8wRecodedEv@Base 2.48.3-1
 _ZN10NCRichText9CreatePadEv@Base 2.48.3-1
 _ZN10NCRichText9PadPreTXTEPKwj@Base 2.48.3-1
 _ZN10NCRichText9textWidthESbIwSt11char_traitsIwESaIwEE@Base 2.48.3-1
 _ZN10NCRichTextC1EP7YWidgetRKSsb@Base 2.48.3-1
 _ZN10NCRichTextC2EP7YWidgetRKSsb@Base 2.48.3-1
 _ZN10NCRichTextD0Ev@Base 2.48.3-1
 _ZN10NCRichTextD1Ev@Base 2.48.3-1
 _ZN10NCRichTextD2Ev@Base 2.48.3-1
 _ZN10NCStyleDef10dumpChtypeERSoRKm@Base 2.48.3-1
 _ZN10NCStyleDef11changeStyleEv@Base 2.48.3-1
 _ZN10NCStyleDef12NCStyleDef_pE@Base 2.48.3-1
 _ZN10NCStyleDef12queryCharEntC1ESsm@Base 2.48.3-1
 _ZN10NCStyleDef12queryCharEntC2ESsm@Base 2.48.3-1
 _ZN10NCStyleDef12restoreStyleEv@Base 2.48.3-1
 _ZN10NCStyleDef3Wex4drawEb@Base 2.48.3-1
 _ZN10NCStyleDef3Wex6changeEv@Base 2.48.3-1
 _ZN10NCStyleDef3WexD0Ev@Base 2.48.3-1
 _ZN10NCStyleDef3WexD1Ev@Base 2.48.3-1
 _ZN10NCStyleDef3WexD2Ev@Base 2.48.3-1
 _ZN10NCStyleDef4Wset4drawEb@Base 2.48.3-1
 _ZN10NCStyleDef4Wset6handleEi@Base 2.48.3-1
 _ZN10NCStyleDef4WsetD0Ev@Base 2.48.3-1
 _ZN10NCStyleDef4WsetD1Ev@Base 2.48.3-1
 _ZN10NCStyleDef4WsetD2Ev@Base 2.48.3-1
 _ZN10NCStyleDef4pboxEb@Base 2.48.3-1
 _ZN10NCStyleDef6SubWin11enterchangeEv@Base 2.48.3-1
 _ZN10NCStyleDef6SubWin11leavechangeEv@Base 2.48.3-1
 _ZN10NCStyleDef6SubWin4drawEb@Base 2.48.3-1
 _ZN10NCStyleDef6SubWin4dtagEv@Base 2.48.3-1
 _ZN10NCStyleDef6SubWin6changeEv@Base 2.48.3-1
 _ZN10NCStyleDef6SubWin6handleEi@Base 2.48.3-1
 _ZN10NCStyleDef6SubWinC1ESsR13NCursesWindowiiii@Base 2.48.3-1
 _ZN10NCStyleDef6SubWinC2ESsR13NCursesWindowiiii@Base 2.48.3-1
 _ZN10NCStyleDef6SubWinD0Ev@Base 2.48.3-1
 _ZN10NCStyleDef6SubWinD1Ev@Base 2.48.3-1
 _ZN10NCStyleDef6SubWinD2Ev@Base 2.48.3-1
 _ZN10NCStyleDef6Wstyle4drawEb@Base 2.48.3-1
 _ZN10NCStyleDef6Wstyle6handleEi@Base 2.48.3-1
 _ZN10NCStyleDef6WstyleD0Ev@Base 2.48.3-1
 _ZN10NCStyleDef6WstyleD1Ev@Base 2.48.3-1
 _ZN10NCStyleDef6WstyleD2Ev@Base 2.48.3-1
 _ZN10NCStyleDef6showexENS_6ExModeE@Base 2.48.3-1
 _ZN10NCStyleDef7Wchattr4drawEb@Base 2.48.3-1
 _ZN10NCStyleDef7Wchattr6handleEi@Base 2.48.3-1
 _ZN10NCStyleDef7Wchattr9drawTableEb@Base 2.48.3-1
 _ZN10NCStyleDef7WchattrD0Ev@Base 2.48.3-1
 _ZN10NCStyleDef7WchattrD1Ev@Base 2.48.3-1
 _ZN10NCStyleDef7WchattrD2Ev@Base 2.48.3-1
 _ZN10NCStyleDef7Wchstat4drawEb@Base 2.48.3-1
 _ZN10NCStyleDef7Wchstat6changeEv@Base 2.48.3-1
 _ZN10NCStyleDef7WchstatD0Ev@Base 2.48.3-1
 _ZN10NCStyleDef7WchstatD1Ev@Base 2.48.3-1
 _ZN10NCStyleDef7WchstatD2Ev@Base 2.48.3-1
 _ZN10NCStyleDef7movePadEi@Base 2.48.3-1
 _ZN10NCStyleDef9doshowsetENS_7SetTypeEb@Base 2.48.3-1
 _ZN10NCStyleDef9fakestyleEN7NCstyle8StyleSetE@Base 2.48.3-1
 _ZN10NCStyleDef9queryCharEim@Base 2.48.3-1
 _ZN10NCStyleDef9saveStyleEv@Base 2.48.3-1
 _ZN10NCStyleDefD1Ev@Base 2.48.3-1
 _ZN10NCStyleDefD2Ev@Base 2.48.3-1
 _ZN10NCTableCol8SetLabelERK7NClabel@Base 2.48.3-1
 _ZN10NCTableColC1ERK8NCstringRKNS_5STYLEE@Base 2.48.3-1
 _ZN10NCTableColC2ERK8NCstringRKNS_5STYLEE@Base 2.48.3-1
 _ZN10NCTableColD0Ev@Base 2.48.3-1
 _ZN10NCTableColD1Ev@Base 2.48.3-1
 _ZN10NCTableColD2Ev@Base 2.48.3-1
 _ZN10NCTablePad10ModifyLineEj@Base 2.48.3-1
 _ZN10NCTablePad10assertLineEj@Base 2.48.3-1
 _ZN10NCTablePad10directDrawER13NCursesWindow5wrectj@Base 2.48.3-1
 _ZN10NCTablePad11SetHeadlineERKSt6vectorI8NCstringSaIS1_EE@Base 2.48.3-1
 _ZN10NCTablePad11handleInputEj@Base 2.48.3-1
 _ZN10NCTablePad12UpdateFormatEv@Base 2.48.3-1
 _ZN10NCTablePad12setItemByKeyEi@Base 2.48.3-1
 _ZN10NCTablePad12stripHotkeysEv@Base 2.48.3-1
 _ZN10NCTablePad16updateScrollHintEv@Base 2.48.3-1
 _ZN10NCTablePad6setposERK4wpos@Base 2.48.3-1
 _ZN10NCTablePad7AddLineEjP11NCTableLine@Base 2.48.3-1
 _ZN10NCTablePad7DelLineEj@Base 2.48.3-1
 _ZN10NCTablePad8DoRedrawEv@Base 2.48.3-1
 _ZN10NCTablePad8SendHeadEv@Base 2.48.3-1
 _ZN10NCTablePad8SetLinesERSt6vectorIP11NCTableLineSaIS2_EE@Base 2.48.3-1
 _ZN10NCTablePad8SetLinesEj@Base 2.48.3-1
 _ZN10NCTablePad8dirtyPadEv@Base 2.48.3-1
 _ZN10NCTablePad8setOrderEib@Base 2.48.3-1
 _ZN10NCTablePad8wRecodedEv@Base 2.48.3-1
 _ZN10NCTablePadC1EiiRK8NCWidget@Base 2.48.3-1
 _ZN10NCTablePadC2EiiRK8NCWidget@Base 2.48.3-1
 _ZN10NCTablePadD0Ev@Base 2.48.3-1
 _ZN10NCTablePadD1Ev@Base 2.48.3-1
 _ZN10NCTablePadD2Ev@Base 2.48.3-1
 _ZN10NCTableTag8SetLabelERK8NCstring@Base 2.48.3-1
 _ZN10NCTableTagD0Ev@Base 2.48.3-1
 _ZN10NCTableTagD1Ev@Base 2.48.3-1
 _ZN10NCTableTagD2Ev@Base 2.48.3-1
 _ZN10NCTreeLine11handleInputEj@Base 2.48.3-1
 _ZN10NCTreeLine15ChangeToVisibleEv@Base 2.48.3-1
 _ZN10NCTreeLineD0Ev@Base 2.48.3-1
 _ZN10NCTreeLineD1Ev@Base 2.48.3-1
 _ZN10NCTreeLineD2Ev@Base 2.48.3-1
 _ZN10NCursesPad11noutrefreshEv@Base 2.48.3-1
 _ZN10NCursesPad7refreshEv@Base 2.48.3-1
 _ZN10NCursesPadC1Eii@Base 2.48.3-1
 _ZN10NCursesPadC2Eii@Base 2.48.3-1
 _ZN10NCursesPadD0Ev@Base 2.48.3-1
 _ZN10NCursesPadD1Ev@Base 2.48.3-1
 _ZN10NCursesPadD2Ev@Base 2.48.3-1
 _ZN10YMenuEventD0Ev@Base 2.48.3-1
 _ZN10YMenuEventD1Ev@Base 2.48.3-1
 _ZN10YMenuEventD2Ev@Base 2.48.3-1
 _ZN10YNCursesUI10init_titleEv@Base 2.48.3-1
 _ZN10YNCursesUI11want_colorsEv@Base 2.48.3-1
 _ZN10YNCursesUI14setConsoleFontERKSsS1_S1_S1_S1_@Base 2.48.3-1
 _ZN10YNCursesUI15runPkgSelectionEP7YWidget@Base 2.48.3-1
 _ZN10YNCursesUI17createApplicationEv@Base 2.48.3-1
 _ZN10YNCursesUI19createWidgetFactoryEv@Base 2.48.3-1
 _ZN10YNCursesUI21packageSelectorPluginEv@Base 2.48.3-1
 _ZN10YNCursesUI27createOptionalWidgetFactoryEv@Base 2.48.3-1
 _ZN10YNCursesUI3_uiE@Base 2.48.3-1
 _ZN10YNCursesUI8idleLoopEi@Base 2.48.3-1
 _ZN10YNCursesUIC1Eb@Base 2.48.3-1
 _ZN10YNCursesUIC2Eb@Base 2.48.3-1
 _ZN10YNCursesUID0Ev@Base 2.48.3-1
 _ZN10YNCursesUID1Ev@Base 2.48.3-1
 _ZN10YNCursesUID2Ev@Base 2.48.3-1
 _ZN10YTableCellD0Ev@Base 2.48.3-1
 _ZN10YTableCellD1Ev@Base 2.48.3-1
 _ZN10YTableCellD2Ev@Base 2.48.3-1
 _ZN11NCAlignment10setEnabledEb@Base 2.48.3-1
 _ZN11NCAlignment14preferredWidthEv@Base 2.48.3-1
 _ZN11NCAlignment15preferredHeightEv@Base 2.48.3-1
 _ZN11NCAlignment7setSizeEii@Base 2.48.3-1
 _ZN11NCAlignment9moveChildEP7YWidgetii@Base 2.48.3-1
 _ZN11NCAlignmentC1EP7YWidget14YAlignmentTypeS2_@Base 2.48.3-1
 _ZN11NCAlignmentC2EP7YWidget14YAlignmentTypeS2_@Base 2.48.3-1
 _ZN11NCAlignmentD0Ev@Base 2.48.3-1
 _ZN11NCAlignmentD1Ev@Base 2.48.3-1
 _ZN11NCAlignmentD2Ev@Base 2.48.3-1
 _ZN11NCButtonBox10setEnabledEb@Base 2.48.3-1
 _ZN11NCButtonBox7setSizeEii@Base 2.48.3-1
 _ZN11NCButtonBox9moveChildEP7YWidgetii@Base 2.48.3-1
 _ZN11NCButtonBoxC1EP7YWidget@Base 2.48.3-1
 _ZN11NCButtonBoxC2EP7YWidget@Base 2.48.3-1
 _ZN11NCButtonBoxD0Ev@Base 2.48.3-1
 _ZN11NCButtonBoxD1Ev@Base 2.48.3-1
 _ZN11NCButtonBoxD2Ev@Base 2.48.3-1
 _ZN11NCDateField10setEnabledEb@Base 2.48.3-1
 _ZN11NCDateField11fieldLengthE@Base 2.48.3-1
 _ZN11NCDateField12wHandleInputEj@Base 2.48.3-1
 _ZN11NCDateField14preferredWidthEv@Base 2.48.3-1
 _ZN11NCDateField15preferredHeightEv@Base 2.48.3-1
 _ZN11NCDateField16setKeyboardFocusEv@Base 2.48.3-1
 _ZN11NCDateField5valueEv@Base 2.48.3-1
 _ZN11NCDateField7setSizeEii@Base 2.48.3-1
 _ZN11NCDateField8setLabelERKSs@Base 2.48.3-1
 _ZN11NCDateField8setValueERKSs@Base 2.48.3-1
 _ZN11NCDateField9validDateERKSs@Base 2.48.3-1
 _ZN11NCDateFieldC1EP7YWidgetRKSs@Base 2.48.3-1
 _ZN11NCDateFieldC2EP7YWidgetRKSs@Base 2.48.3-1
 _ZN11NCDateFieldD0Ev@Base 2.48.3-1
 _ZN11NCDateFieldD1Ev@Base 2.48.3-1
 _ZN11NCDateFieldD2Ev@Base 2.48.3-1
 _ZN11NCFileTable10fillHeaderEv@Base 2.48.3-1
 _ZN11NCFileTable11filterMatchERKSs@Base 2.48.3-1
 _ZN11NCFileTable12wHandleInputEj@Base 2.48.3-1
 _ZN11NCFileTable15createListEntryEP10NCFileInfo@Base 2.48.3-1
 _ZN11NCFileTable8fillListEv@Base 2.48.3-1
 _ZN11NCFileTableC1EP7YWidgetP12YTableHeaderN15NCFileSelection19NCFileSelectionTypeERKSsS7_@Base 2.48.3-1
 _ZN11NCFileTableC2EP7YWidgetP12YTableHeaderN15NCFileSelection19NCFileSelectionTypeERKSsS7_@Base 2.48.3-1
 _ZN11NCFileTableD0Ev@Base 2.48.3-1
 _ZN11NCFileTableD1Ev@Base 2.48.3-1
 _ZN11NCFileTableD2Ev@Base 2.48.3-1
 _ZN11NCLayoutBox10setEnabledEb@Base 2.48.3-1
 _ZN11NCLayoutBox14preferredWidthEv@Base 2.48.3-1
 _ZN11NCLayoutBox15preferredHeightEv@Base 2.48.3-1
 _ZN11NCLayoutBox7setSizeEii@Base 2.48.3-1
 _ZN11NCLayoutBox9moveChildEP7YWidgetii@Base 2.48.3-1
 _ZN11NCLayoutBoxC1EP7YWidget12YUIDimension@Base 2.48.3-1
 _ZN11NCLayoutBoxC2EP7YWidget12YUIDimension@Base 2.48.3-1
 _ZN11NCLayoutBoxD0Ev@Base 2.48.3-1
 _ZN11NCLayoutBoxD1Ev@Base 2.48.3-1
 _ZN11NCLayoutBoxD2Ev@Base 2.48.3-1
 _ZN11NCPadWidget10ScrollHeadER13NCursesWindowj@Base 2.48.3-1
 _ZN11NCPadWidget10setEnabledEb@Base 2.48.3-1
 _ZN11NCPadWidget11handleInputEj@Base 2.48.3-1
 _ZN11NCPadWidget13AdjustPadSizeER4wsze@Base 2.48.3-1
 _ZN11NCPadWidget6DelPadEv@Base 2.48.3-1
 _ZN11NCPadWidget7DrawPadEv@Base 2.48.3-1
 _ZN11NCPadWidget7HScrollEjjj@Base 2.48.3-1
 _ZN11NCPadWidget7InitPadEv@Base 2.48.3-1
 _ZN11NCPadWidget7VScrollEjjj@Base 2.48.3-1
 _ZN11NCPadWidget7wCreateERK5wrect@Base 2.48.3-1
 _ZN11NCPadWidget7wDeleteEv@Base 2.48.3-1
 _ZN11NCPadWidget7wRedrawEv@Base 2.48.3-1
 _ZN11NCPadWidget8setLabelERK7NClabel@Base 2.48.3-1
 _ZN11NCPadWidget8wRecodedEv@Base 2.48.3-1
 _ZN11NCPadWidget9AdjustPadE4wsze@Base 2.48.3-1
 _ZN11NCPadWidget9CreatePadEv@Base 2.48.3-1
 _ZN11NCPadWidgetC1EP7YWidget@Base 2.48.3-1
 _ZN11NCPadWidgetC1EP8NCWidget@Base 2.48.3-1
 _ZN11NCPadWidgetC2EP7YWidget@Base 2.48.3-1
 _ZN11NCPadWidgetC2EP8NCWidget@Base 2.48.3-1
 _ZN11NCPadWidgetD0Ev@Base 2.48.3-1
 _ZN11NCPadWidgetD1Ev@Base 2.48.3-1
 _ZN11NCPadWidgetD2Ev@Base 2.48.3-1
 _ZN11NCPopupInfo12createLayoutERKSsS1_SsSs@Base 2.48.3-1
 _ZN11NCPopupInfo12wHandleInputEj@Base 2.48.3-1
 _ZN11NCPopupInfo13showInfoPopupEv@Base 2.48.3-1
 _ZN11NCPopupInfo14preferredWidthEv@Base 2.48.3-1
 _ZN11NCPopupInfo15preferredHeightEv@Base 2.48.3-1
 _ZN11NCPopupInfo5popupEv@Base 2.48.3-1
 _ZN11NCPopupInfo7popdownEv@Base 2.48.3-1
 _ZN11NCPopupInfo9postAgainEv@Base 2.48.3-1
 _ZN11NCPopupInfoC1E4wposRKSsS2_SsSs@Base 2.48.3-1
 _ZN11NCPopupInfoC2E4wposRKSsS2_SsSs@Base 2.48.3-1
 _ZN11NCPopupInfoD0Ev@Base 2.48.3-1
 _ZN11NCPopupInfoD1Ev@Base 2.48.3-1
 _ZN11NCPopupInfoD2Ev@Base 2.48.3-1
 _ZN11NCPopupList13createEntriesERKSt4listISsSaISsEEi@Base 2.48.3-1
 _ZN11NCPopupList9postAgainEv@Base 2.48.3-1
 _ZN11NCPopupListC1E4wposRKSsRKSt4listISsSaISsEEi@Base 2.48.3-1
 _ZN11NCPopupListC2E4wposRKSsRKSt4listISsSaISsEEi@Base 2.48.3-1
 _ZN11NCPopupListD0Ev@Base 2.48.3-1
 _ZN11NCPopupListD1Ev@Base 2.48.3-1
 _ZN11NCPopupListD2Ev@Base 2.48.3-1
 _ZN11NCPopupMenu12wHandleInputEj@Base 2.48.3-1
 _ZN11NCPopupMenu9postAgainEv@Base 2.48.3-1
 _ZN11NCPopupMenuC1E4wposN9__gnu_cxx17__normal_iteratorIPP5YItemSt6vectorIS4_SaIS4_EEEES9_@Base 2.48.3-1
 _ZN11NCPopupMenuC2E4wposN9__gnu_cxx17__normal_iteratorIPP5YItemSt6vectorIS4_SaIS4_EEEES9_@Base 2.48.3-1
 _ZN11NCPopupMenuD0Ev@Base 2.48.3-1
 _ZN11NCPopupMenuD1Ev@Base 2.48.3-1
 _ZN11NCPopupMenuD2Ev@Base 2.48.3-1
 _ZN11NCSchrollCB10ScrollHeadER13NCursesWindowj@Base 2.48.3-1
 _ZN11NCSchrollCB13AdjustPadSizeER4wsze@Base 2.48.3-1
 _ZN11NCSchrollCB7HScrollEjjj@Base 2.48.3-1
 _ZN11NCSchrollCB7VScrollEjjj@Base 2.48.3-1
 _ZN11NCSchrollCBD0Ev@Base 2.48.3-1
 _ZN11NCSchrollCBD1Ev@Base 2.48.3-1
 _ZN11NCSchrollCBD2Ev@Base 2.48.3-1
 _ZN11NCScrollbarD0Ev@Base 2.48.3-1
 _ZN11NCScrollbarD1Ev@Base 2.48.3-1
 _ZN11NCScrollbarD2Ev@Base 2.48.3-1
 _ZN11NCTableHeadD0Ev@Base 2.48.3-1
 _ZN11NCTableHeadD1Ev@Base 2.48.3-1
 _ZN11NCTableHeadD2Ev@Base 2.48.3-1
 _ZN11NCTableLine11handleInputEj@Base 2.48.3-1
 _ZN11NCTableLine11setOrigItemEP10YTableItem@Base 2.48.3-1
 _ZN11NCTableLine12UpdateFormatER12NCTableStyle@Base 2.48.3-1
 _ZN11NCTableLine12stripHotkeysEv@Base 2.48.3-1
 _ZN11NCTableLine15ChangeToVisibleEv@Base 2.48.3-1
 _ZN11NCTableLine6AddColEjP10NCTableCol@Base 2.48.3-1
 _ZN11NCTableLine6DelColEj@Base 2.48.3-1
 _ZN11NCTableLine6GetColEj@Base 2.48.3-1
 _ZN11NCTableLine7SetColsERSt6vectorIP10NCTableColSaIS2_EE@Base 2.48.3-1
 _ZN11NCTableLine7SetColsEj@Base 2.48.3-1
 _ZN11NCTableLine9assertColEj@Base 2.48.3-1
 _ZN11NCTableLineC1ERSt6vectorIP10NCTableColSaIS2_EEij@Base 2.48.3-1
 _ZN11NCTableLineC1Ejij@Base 2.48.3-1
 _ZN11NCTableLineC2ERSt6vectorIP10NCTableColSaIS2_EEij@Base 2.48.3-1
 _ZN11NCTableLineC2Ejij@Base 2.48.3-1
 _ZN11NCTableLineD0Ev@Base 2.48.3-1
 _ZN11NCTableLineD1Ev@Base 2.48.3-1
 _ZN11NCTableLineD2Ev@Base 2.48.3-1
 _ZN11NCTimeField10setEnabledEb@Base 2.48.3-1
 _ZN11NCTimeField11fieldLengthE@Base 2.48.3-1
 _ZN11NCTimeField12wHandleInputEj@Base 2.48.3-1
 _ZN11NCTimeField14preferredWidthEv@Base 2.48.3-1
 _ZN11NCTimeField15preferredHeightEv@Base 2.48.3-1
 _ZN11NCTimeField16setKeyboardFocusEv@Base 2.48.3-1
 _ZN11NCTimeField5valueEv@Base 2.48.3-1
 _ZN11NCTimeField7setSizeEii@Base 2.48.3-1
 _ZN11NCTimeField8setLabelERKSs@Base 2.48.3-1
 _ZN11NCTimeField8setValueERKSs@Base 2.48.3-1
 _ZN11NCTimeField9validTimeERKSs@Base 2.48.3-1
 _ZN11NCTimeFieldC1EP7YWidgetRKSs@Base 2.48.3-1
 _ZN11NCTimeFieldC2EP7YWidgetRKSs@Base 2.48.3-1
 _ZN11NCTimeFieldD0Ev@Base 2.48.3-1
 _ZN11NCTimeFieldD1Ev@Base 2.48.3-1
 _ZN11NCTimeFieldD2Ev@Base 2.48.3-1
 _ZN11NCattribute6_pairsE@Base 2.48.3-1
 _ZN11NCattribute7_colorsE@Base 2.48.3-1
 _ZN11NCtoY2Event9propagateEv@Base 2.48.3-1
 _ZN11NCtoY2EventC1ERK12NCursesEvent@Base 2.48.3-1
 _ZN11NCtoY2EventC2ERK12NCursesEvent@Base 2.48.3-1
 _ZN11NCtoY2EventD0Ev@Base 2.48.3-1
 _ZN11NCtoY2EventD1Ev@Base 2.48.3-1
 _ZN11NCtoY2EventD2Ev@Base 2.48.3-1
 _ZN11NCtoY2EventaSERK12NCursesEvent@Base 2.48.3-1
 _ZN11YInputField17setShortcutStringERKSs@Base 2.48.3-1
 _ZN11YInputField17userInputPropertyEv@Base 2.48.3-1
 _ZN11YPushButton17setShortcutStringERKSs@Base 2.48.3-1
 _ZN11YPushButton7setIconERKSs@Base 2.48.3-1
 _ZN12NCAskForFile11checkIniDirESs@Base 2.48.3-1
 _ZN12NCAskForFile12createLayoutERKSsS1_S1_b@Base 2.48.3-1
 _ZN12NCAskForFile12showDirPopupEv@Base 2.48.3-1
 _ZN12NCAskForFile12wHandleInputEj@Base 2.48.3-1
 _ZN12NCAskForFile14preferredWidthEv@Base 2.48.3-1
 _ZN12NCAskForFile14updateFileListEv@Base 2.48.3-1
 _ZN12NCAskForFile15preferredHeightEv@Base 2.48.3-1
 _ZN12NCAskForFile16getCheckBoxValueEP10NCCheckBox@Base 2.48.3-1
 _ZN12NCAskForFile9postAgainEv@Base 2.48.3-1
 _ZN12NCAskForFileC1E4wposRKSsS2_S2_@Base 2.48.3-1
 _ZN12NCAskForFileC2E4wposRKSsS2_S2_@Base 2.48.3-1
 _ZN12NCAskForFileD0Ev@Base 2.48.3-1
 _ZN12NCAskForFileD1Ev@Base 2.48.3-1
 _ZN12NCAskForFileD2Ev@Base 2.48.3-1
 _ZN12NCInputField10setEnabledEb@Base 2.48.3-1
 _ZN12NCInputField12wHandleInputEj@Base 2.48.3-1
 _ZN12NCInputField13setValidCharsERKSs@Base 2.48.3-1
 _ZN12NCInputField14preferredWidthEv@Base 2.48.3-1
 _ZN12NCInputField15preferredHeightEv@Base 2.48.3-1
 _ZN12NCInputField16setKeyboardFocusEv@Base 2.48.3-1
 _ZN12NCInputField17setInputMaxLengthEi@Base 2.48.3-1
 _ZN12NCInputField5valueEv@Base 2.48.3-1
 _ZN12NCInputField7setSizeEii@Base 2.48.3-1
 _ZN12NCInputField7tUpdateEv@Base 2.48.3-1
 _ZN12NCInputField7wCreateERK5wrect@Base 2.48.3-1
 _ZN12NCInputField7wDeleteEv@Base 2.48.3-1
 _ZN12NCInputField7wRedrawEv@Base 2.48.3-1
 _ZN12NCInputField8setLabelERKSs@Base 2.48.3-1
 _ZN12NCInputField8setValueERKSs@Base 2.48.3-1
 _ZN12NCInputField9setDefszeEv@Base 2.48.3-1
 _ZN12NCInputFieldC1EP7YWidgetRKSsbjj@Base 2.48.3-1
 _ZN12NCInputFieldC2EP7YWidgetRKSsbjj@Base 2.48.3-1
 _ZN12NCInputFieldD0Ev@Base 2.48.3-1
 _ZN12NCInputFieldD1Ev@Base 2.48.3-1
 _ZN12NCInputFieldD2Ev@Base 2.48.3-1
 _ZN12NCMenuButton10setEnabledEb@Base 2.48.3-1
 _ZN12NCMenuButton12wHandleInputEj@Base 2.48.3-1
 _ZN12NCMenuButton14preferredWidthEv@Base 2.48.3-1
 _ZN12NCMenuButton15preferredHeightEv@Base 2.48.3-1
 _ZN12NCMenuButton15rebuildMenuTreeEv@Base 2.48.3-1
 _ZN12NCMenuButton16setKeyboardFocusEv@Base 2.48.3-1
 _ZN12NCMenuButton7setSizeEii@Base 2.48.3-1
 _ZN12NCMenuButton7wRedrawEv@Base 2.48.3-1
 _ZN12NCMenuButton8postMenuEv@Base 2.48.3-1
 _ZN12NCMenuButton8setLabelERKSs@Base 2.48.3-1
 _ZN12NCMenuButtonC1EP7YWidgetSs@Base 2.48.3-1
 _ZN12NCMenuButtonC2EP7YWidgetSs@Base 2.48.3-1
 _ZN12NCMenuButtonD0Ev@Base 2.48.3-1
 _ZN12NCMenuButtonD1Ev@Base 2.48.3-1
 _ZN12NCMenuButtonD2Ev@Base 2.48.3-1
 _ZN12NCPopupTable10createListERSt6vectorISsSaISsEE@Base 2.48.3-1
 _ZN12NCPopupTable12stripHotkeysEv@Base 2.48.3-1
 _ZN12NCPopupTable13wHandleHotkeyEj@Base 2.48.3-1
 _ZN12NCPopupTable14setCurrentItemEi@Base 2.48.3-1
 _ZN12NCPopupTable7addItemEP5YItem@Base 2.48.3-1
 _ZN12NCPopupTable9postAgainEv@Base 2.48.3-1
 _ZN12NCPopupTableC1E4wpos@Base 2.48.3-1
 _ZN12NCPopupTableC2E4wpos@Base 2.48.3-1
 _ZN12NCPopupTableD0Ev@Base 2.48.3-1
 _ZN12NCPopupTableD1Ev@Base 2.48.3-1
 _ZN12NCPopupTableD2Ev@Base 2.48.3-1
 _ZN12NCPushButton10setEnabledEb@Base 2.48.3-1
 _ZN12NCPushButton12wHandleInputEj@Base 2.48.3-1
 _ZN12NCPushButton14preferredWidthEv@Base 2.48.3-1
 _ZN12NCPushButton15preferredHeightEv@Base 2.48.3-1
 _ZN12NCPushButton16setKeyboardFocusEv@Base 2.48.3-1
 _ZN12NCPushButton7setSizeEii@Base 2.48.3-1
 _ZN12NCPushButton7wRedrawEv@Base 2.48.3-1
 _ZN12NCPushButton8setLabelERKSs@Base 2.48.3-1
 _ZN12NCPushButtonC1EP7YWidgetRKSs@Base 2.48.3-1
 _ZN12NCPushButtonC2EP7YWidgetRKSs@Base 2.48.3-1
 _ZN12NCPushButtonD0Ev@Base 2.48.3-1
 _ZN12NCPushButtonD1Ev@Base 2.48.3-1
 _ZN12NCPushButtonD2Ev@Base 2.48.3-1
 _ZN12NCScrollHint10SetPadSizeER4wsze@Base 2.48.3-1
 _ZN12NCScrollHint7SetHeadER13NCursesWindowj@Base 2.48.3-1
 _ZN12NCScrollHint8SendHeadEv@Base 2.48.3-1
 _ZN12NCScrollHintD0Ev@Base 2.48.3-1
 _ZN12NCScrollHintD1Ev@Base 2.48.3-1
 _ZN12NCScrollHintD2Ev@Base 2.48.3-1
 _ZN12NCTableStyle12SetStyleFromERKSt6vectorI8NCstringSaIS1_EE@Base 2.48.3-1
 _ZN12NCTableStyleC1ERK8NCWidget@Base 2.48.3-1
 _ZN12NCTableStyleC2ERK8NCWidget@Base 2.48.3-1
 _ZN12NCTableStyleD1Ev@Base 2.48.3-1
 _ZN12NCTableStyleD2Ev@Base 2.48.3-1
 _ZN12NCursesError7NCErrorEPKcz@Base 2.48.3-1
 _ZN12NCursesError7NCErrorEiPKcz@Base 2.48.3-1
 _ZN12NCursesErrorC1EPKcz@Base 2.48.3-1
 _ZN12NCursesErrorC1EiPKcz@Base 2.48.3-1
 _ZN12NCursesErrorC2EPKcz@Base 2.48.3-1
 _ZN12NCursesErrorC2EiPKcz@Base 2.48.3-1
 _ZN12NCursesErrorD0Ev@Base 2.48.3-1
 _ZN12NCursesErrorD1Ev@Base 2.48.3-1
 _ZN12NCursesErrorD2Ev@Base 2.48.3-1
 _ZN12NCursesEvent12ValueChangedE@Base 2.48.3-1
 _ZN12NCursesEvent16SelectionChangedE@Base 2.48.3-1
 _ZN12NCursesEvent9ActivatedE@Base 2.48.3-1
 _ZN12NCursesEventD0Ev@Base 2.48.3-1
 _ZN12NCursesEventD1Ev@Base 2.48.3-1
 _ZN12NCursesEventD2Ev@Base 2.48.3-1
 _ZN12NCursesPanel10centertextEiPKc@Base 2.48.3-1
 _ZN12NCursesPanel11noutrefreshEv@Base 2.48.3-1
 _ZN12NCursesPanel11transparentEii@Base 2.48.3-1
 _ZN12NCursesPanel4hideEv@Base 2.48.3-1
 _ZN12NCursesPanel4initEv@Base 2.48.3-1
 _ZN12NCursesPanel4showEv@Base 2.48.3-1
 _ZN12NCursesPanel5dummyE@Base 2.48.3-1
 _ZN12NCursesPanel5frameEPKcS1_@Base 2.48.3-1
 _ZN12NCursesPanel5labelEPKcS1_@Base 2.48.3-1
 _ZN12NCursesPanel5mvwinEii@Base 2.48.3-1
 _ZN12NCursesPanel6redrawEv@Base 2.48.3-1
 _ZN12NCursesPanel6resizeEii@Base 2.48.3-1
 _ZN12NCursesPanel7refreshEv@Base 2.48.3-1
 _ZN12NCursesPanel9boldframeEPKcS1_@Base 2.48.3-1
 _ZN12NCursesPanelD0Ev@Base 2.48.3-1
 _ZN12NCursesPanelD1Ev@Base 2.48.3-1
 _ZN12NCursesPanelD2Ev@Base 2.48.3-1
 _ZN12YApplication10busyCursorEv@Base 2.48.3-1
 _ZN12YApplication12normalCursorEv@Base 2.48.3-1
 _ZN12YApplication14makeScreenShotERKSs@Base 2.48.3-1
 _ZN12YApplication22hasWizardDialogSupportEv@Base 2.48.3-1
 _ZN12YCancelEventD0Ev@Base 2.48.3-1
 _ZN12YCancelEventD1Ev@Base 2.48.3-1
 _ZN12YCancelEventD2Ev@Base 2.48.3-1
 _ZN12YRadioButton17setShortcutStringERKSs@Base 2.48.3-1
 _ZN12YRadioButton17userInputPropertyEv@Base 2.48.3-1
 _ZN12YUIExceptionC1ERKS_@Base 2.48.3-1
 _ZN12YUIExceptionC2ERKS_@Base 2.48.3-1
 _ZN13NCApplication10isTextModeEv@Base 2.48.3-1
 _ZN13NCApplication11setLanguageERKSsS1_@Base 2.48.3-1
 _ZN13NCApplication12defaultWidthEv@Base 2.48.3-1
 _ZN13NCApplication12displayDepthEv@Base 2.48.3-1
 _ZN13NCApplication12displayWidthEv@Base 2.48.3-1
 _ZN13NCApplication12redrawScreenEv@Base 2.48.3-1
 _ZN13NCApplication13defaultHeightEv@Base 2.48.3-1
 _ZN13NCApplication13displayColorsEv@Base 2.48.3-1
 _ZN13NCApplication13displayHeightEv@Base 2.48.3-1
 _ZN13NCApplication13runInTerminalERKSs@Base 2.48.3-1
 _ZN13NCApplication14hasIconSupportEv@Base 2.48.3-1
 _ZN13NCApplication14setConsoleFontERKSsS1_S1_S1_S1_@Base 2.48.3-1
 _ZN13NCApplication15hasImageSupportEv@Base 2.48.3-1
 _ZN13NCApplication15leftHandedMouseEv@Base 2.48.3-1
 _ZN13NCApplication18askForExistingFileERKSsS1_S1_@Base 2.48.3-1
 _ZN13NCApplication18askForSaveFileNameERKSsS1_S1_@Base 2.48.3-1
 _ZN13NCApplication18hasFullUtf8SupportEv@Base 2.48.3-1
 _ZN13NCApplication19hasAnimationSupportEv@Base 2.48.3-1
 _ZN13NCApplication19initConsoleKeyboardEv@Base 2.48.3-1
 _ZN13NCApplication19setApplicationTitleERKSs@Base 2.48.3-1
 _ZN13NCApplication21richTextSupportsTableEv@Base 2.48.3-1
 _ZN13NCApplication23askForExistingDirectoryERKSsS1_@Base 2.48.3-1
 _ZN13NCApplication4beepEv@Base 2.48.3-1
 _ZN13NCApplication6openUIEv@Base 2.48.3-1
 _ZN13NCApplication7closeUIEv@Base 2.48.3-1
 _ZN13NCApplicationC1Ev@Base 2.48.3-1
 _ZN13NCApplicationC2Ev@Base 2.48.3-1
 _ZN13NCApplicationD0Ev@Base 2.48.3-1
 _ZN13NCApplicationD1Ev@Base 2.48.3-1
 _ZN13NCApplicationD2Ev@Base 2.48.3-1
 _ZN13NCProgressBar10setEnabledEb@Base 2.48.3-1
 _ZN13NCProgressBar14preferredWidthEv@Base 2.48.3-1
 _ZN13NCProgressBar15preferredHeightEv@Base 2.48.3-1
 _ZN13NCProgressBar7setSizeEii@Base 2.48.3-1
 _ZN13NCProgressBar7tUpdateEv@Base 2.48.3-1
 _ZN13NCProgressBar7wCreateERK5wrect@Base 2.48.3-1
 _ZN13NCProgressBar7wDeleteEv@Base 2.48.3-1
 _ZN13NCProgressBar7wRedrawEv@Base 2.48.3-1
 _ZN13NCProgressBar8setLabelERKSs@Base 2.48.3-1
 _ZN13NCProgressBar8setValueEi@Base 2.48.3-1
 _ZN13NCProgressBar9setDefszeEv@Base 2.48.3-1
 _ZN13NCProgressBarC1EP7YWidgetRKSsi@Base 2.48.3-1
 _ZN13NCProgressBarC2EP7YWidgetRKSsi@Base 2.48.3-1
 _ZN13NCProgressBarD0Ev@Base 2.48.3-1
 _ZN13NCProgressBarD1Ev@Base 2.48.3-1
 _ZN13NCProgressBarD2Ev@Base 2.48.3-1
 _ZN13NCRadioButton10setEnabledEb@Base 2.48.3-1
 _ZN13NCRadioButton12wHandleInputEj@Base 2.48.3-1
 _ZN13NCRadioButton14preferredWidthEv@Base 2.48.3-1
 _ZN13NCRadioButton15preferredHeightEv@Base 2.48.3-1
 _ZN13NCRadioButton16setKeyboardFocusEv@Base 2.48.3-1
 _ZN13NCRadioButton5valueEv@Base 2.48.3-1
 _ZN13NCRadioButton7setSizeEii@Base 2.48.3-1
 _ZN13NCRadioButton7wRedrawEv@Base 2.48.3-1
 _ZN13NCRadioButton8setLabelERKSs@Base 2.48.3-1
 _ZN13NCRadioButton8setValueEb@Base 2.48.3-1
 _ZN13NCRadioButtonC1EP7YWidgetRKSsb@Base 2.48.3-1
 _ZN13NCRadioButtonC2EP7YWidgetRKSsb@Base 2.48.3-1
 _ZN13NCRadioButtonD0Ev@Base 2.48.3-1
 _ZN13NCRadioButtonD1Ev@Base 2.48.3-1
 _ZN13NCRadioButtonD2Ev@Base 2.48.3-1
 _ZN13NCursesWindow10initializeEv@Base 2.48.3-1
 _ZN13NCursesWindow10ripofflineEiPFiRS_E@Base 2.48.3-1
 _ZN13NCursesWindow10setpaletteEss@Base 2.48.3-1
 _ZN13NCursesWindow10setpaletteEsss@Base 2.48.3-1
 _ZN13NCursesWindow11CUR_addwstrEPKwi@Base 2.48.3-1
 _ZN13NCursesWindow11CUR_addwstrEiiPKwi@Base 2.48.3-1
 _ZN13NCursesWindow11noutrefreshEv@Base 2.48.3-1
 _ZN13NCursesWindow11ripoff_initEP7_win_sti@Base 2.48.3-1
 _ZN13NCursesWindow12isDescendantERS_@Base 2.48.3-1
 _ZN13NCursesWindow13add_attr_charEii@Base 2.48.3-1
 _ZN13NCursesWindow13add_attr_charEv@Base 2.48.3-1
 _ZN13NCursesWindow13b_initializedE@Base 2.48.3-1
 _ZN13NCursesWindow14NumberOfColorsEv@Base 2.48.3-1
 _ZN13NCursesWindow15kill_subwindowsEv@Base 2.48.3-1
 _ZN13NCursesWindow16colorInitializedE@Base 2.48.3-1
 _ZN13NCursesWindow3boxERK5wrect@Base 2.48.3-1
 _ZN13NCursesWindow3boxEv@Base 2.48.3-1
 _ZN13NCursesWindow4initEv@Base 2.48.3-1
 _ZN13NCursesWindow5CloneEv@Base 2.48.3-1
 _ZN13NCursesWindow5countE@Base 2.48.3-1
 _ZN13NCursesWindow5mvwinEii@Base 2.48.3-1
 _ZN13NCursesWindow6printwEPKcz@Base 2.48.3-1
 _ZN13NCursesWindow6printwEiiPKcz@Base 2.48.3-1
 _ZN13NCursesWindow6resizeEii@Base 2.48.3-1
 _ZN13NCursesWindow7refreshEv@Base 2.48.3-1
 _ZN13NCursesWindow8in_wcharEP7cchar_t@Base 2.48.3-1
 _ZN13NCursesWindow8in_wcharEiiP7cchar_t@Base 2.48.3-1
 _ZN13NCursesWindow8mvsubwinEPS_ii@Base 2.48.3-1
 _ZN13NCursesWindow8setcolorEs@Base 2.48.3-1
 _ZN13NCursesWindow9useColorsEv@Base 2.48.3-1
 _ZN13NCursesWindowC1EP7_win_st@Base 2.48.3-1
 _ZN13NCursesWindowC1EP7_win_sti@Base 2.48.3-1
 _ZN13NCursesWindowC1ERS_iiiic@Base 2.48.3-1
 _ZN13NCursesWindowC1Eiiii@Base 2.48.3-1
 _ZN13NCursesWindowC1Ev@Base 2.48.3-1
 _ZN13NCursesWindowC2EP7_win_st@Base 2.48.3-1
 _ZN13NCursesWindowC2EP7_win_sti@Base 2.48.3-1
 _ZN13NCursesWindowC2ERS_iiiic@Base 2.48.3-1
 _ZN13NCursesWindowC2Eiiii@Base 2.48.3-1
 _ZN13NCursesWindowC2Ev@Base 2.48.3-1
 _ZN13NCursesWindowD0Ev@Base 2.48.3-1
 _ZN13NCursesWindowD1Ev@Base 2.48.3-1
 _ZN13NCursesWindowD2Ev@Base 2.48.3-1
 _ZN13YCodeLocationC1ERKSsS1_i@Base 2.48.3-1
 _ZN13YCodeLocationC2ERKSsS1_i@Base 2.48.3-1
 _ZN13YCodeLocationD1Ev@Base 2.48.3-1
 _ZN13YCodeLocationD2Ev@Base 2.48.3-1
 _ZN13YSelectionBox17userInputPropertyEv@Base 2.48.3-1
 _ZN13YTimeoutEventD0Ev@Base 2.48.3-1
 _ZN13YTimeoutEventD1Ev@Base 2.48.3-1
 _ZN13YTimeoutEventD2Ev@Base 2.48.3-1
 _ZN14NCReplacePoint10setEnabledEb@Base 2.48.3-1
 _ZN14NCReplacePoint14preferredWidthEv@Base 2.48.3-1
 _ZN14NCReplacePoint15preferredHeightEv@Base 2.48.3-1
 _ZN14NCReplacePoint7setSizeEii@Base 2.48.3-1
 _ZN14NCReplacePointC1EP7YWidget@Base 2.48.3-1
 _ZN14NCReplacePointC2EP7YWidget@Base 2.48.3-1
 _ZN14NCReplacePointD0Ev@Base 2.48.3-1
 _ZN14NCReplacePointD1Ev@Base 2.48.3-1
 _ZN14NCReplacePointD2Ev@Base 2.48.3-1
 _ZN14NCSelectionBox10selectItemEP5YItemb@Base 2.48.3-1
 _ZN14NCSelectionBox10selectItemEi@Base 2.48.3-1
 _ZN14NCSelectionBox10setEnabledEb@Base 2.48.3-1
 _ZN14NCSelectionBox12wHandleInputEj@Base 2.48.3-1
 _ZN14NCSelectionBox14deleteAllItemsEv@Base 2.48.3-1
 _ZN14NCSelectionBox14getCurrentItemEv@Base 2.48.3-1
 _ZN14NCSelectionBox14preferredWidthEv@Base 2.48.3-1
 _ZN14NCSelectionBox14setCurrentItemEi@Base 2.48.3-1
 _ZN14NCSelectionBox15preferredHeightEv@Base 2.48.3-1
 _ZN14NCSelectionBox16setKeyboardFocusEv@Base 2.48.3-1
 _ZN14NCSelectionBox7addItemEP5YItem@Base 2.48.3-1
 _ZN14NCSelectionBox7addItemERKSsb@Base 2.48.3-1
 _ZN14NCSelectionBox7getLineERKi@Base 2.48.3-1
 _ZN14NCSelectionBox7setSizeEii@Base 2.48.3-1
 _ZN14NCSelectionBox8setLabelERKSs@Base 2.48.3-1
 _ZN14NCSelectionBox8wRecodedEv@Base 2.48.3-1
 _ZN14NCSelectionBox9CreatePadEv@Base 2.48.3-1
 _ZN14NCSelectionBoxC1EP7YWidgetRKSs@Base 2.48.3-1
 _ZN14NCSelectionBoxC2EP7YWidgetRKSs@Base 2.48.3-1
 _ZN14NCSelectionBoxD0Ev@Base 2.48.3-1
 _ZN14NCSelectionBoxD1Ev@Base 2.48.3-1
 _ZN14NCSelectionBoxD2Ev@Base 2.48.3-1
 _ZN14YCheckBoxFrame17setShortcutStringERKSs@Base 2.48.3-1
 _ZN14YCheckBoxFrame17userInputPropertyEv@Base 2.48.3-1
 _ZN14YMultiLineEdit17setShortcutStringERKSs@Base 2.48.3-1
 _ZN14YMultiLineEdit17userInputPropertyEv@Base 2.48.3-1
 _ZN15NCBusyIndicator10setEnabledEb@Base 2.48.3-1
 _ZN15NCBusyIndicator10setTimeoutEi@Base 2.48.3-1
 _ZN15NCBusyIndicator14preferredWidthEv@Base 2.48.3-1
 _ZN15NCBusyIndicator15preferredHeightEv@Base 2.48.3-1
 _ZN15NCBusyIndicator6updateEv@Base 2.48.3-1
 _ZN15NCBusyIndicator7handlerEi@Base 2.48.3-1
 _ZN15NCBusyIndicator7setSizeEii@Base 2.48.3-1
 _ZN15NCBusyIndicator7tUpdateEv@Base 2.48.3-1
 _ZN15NCBusyIndicator7wCreateERK5wrect@Base 2.48.3-1
 _ZN15NCBusyIndicator7wDeleteEv@Base 2.48.3-1
 _ZN15NCBusyIndicator7wRedrawEv@Base 2.48.3-1
 _ZN15NCBusyIndicator8setAliveEb@Base 2.48.3-1
 _ZN15NCBusyIndicator8setLabelERKSs@Base 2.48.3-1
 _ZN15NCBusyIndicator9setDefszeEv@Base 2.48.3-1
 _ZN15NCBusyIndicatorC1EP7YWidgetRKSsi@Base 2.48.3-1
 _ZN15NCBusyIndicatorC2EP7YWidgetRKSsi@Base 2.48.3-1
 _ZN15NCBusyIndicatorD0Ev@Base 2.48.3-1
 _ZN15NCBusyIndicatorD1Ev@Base 2.48.3-1
 _ZN15NCBusyIndicatorD2Ev@Base 2.48.3-1
 _ZN15NCCheckBoxFrame10setEnabledEb@Base 2.48.3-1
 _ZN15NCCheckBoxFrame12wHandleInputEj@Base 2.48.3-1
 _ZN15NCCheckBoxFrame14getParentValueEP8NCWidgetb@Base 2.48.3-1
 _ZN15NCCheckBoxFrame14preferredWidthEv@Base 2.48.3-1
 _ZN15NCCheckBoxFrame15preferredHeightEv@Base 2.48.3-1
 _ZN15NCCheckBoxFrame16setKeyboardFocusEv@Base 2.48.3-1
 _ZN15NCCheckBoxFrame5valueEv@Base 2.48.3-1
 _ZN15NCCheckBoxFrame7setSizeEii@Base 2.48.3-1
 _ZN15NCCheckBoxFrame7wRedrawEv@Base 2.48.3-1
 _ZN15NCCheckBoxFrame8getValueEv@Base 2.48.3-1
 _ZN15NCCheckBoxFrame8gotBuddyEv@Base 2.48.3-1
 _ZN15NCCheckBoxFrame8setLabelERKSs@Base 2.48.3-1
 _ZN15NCCheckBoxFrame8setValueEb@Base 2.48.3-1
 _ZN15NCCheckBoxFrameC1EP7YWidgetRKSsb@Base 2.48.3-1
 _ZN15NCCheckBoxFrameC2EP7YWidgetRKSsb@Base 2.48.3-1
 _ZN15NCCheckBoxFrameD0Ev@Base 2.48.3-1
 _ZN15NCCheckBoxFrameD1Ev@Base 2.48.3-1
 _ZN15NCCheckBoxFrameD2Ev@Base 2.48.3-1
 _ZN15NCFileSelection11getFileInfoEi@Base 2.48.3-1
 _ZN15NCFileSelection13setCurrentDirEv@Base 2.48.3-1
 _ZN15NCFileSelection14deleteAllItemsEv@Base 2.48.3-1
 _ZN15NCFileSelection14getCurrentLineEv@Base 2.48.3-1
 _ZN15NCFileSelection15handleKeyEventsEj@Base 2.48.3-1
 _ZN15NCFileSelection6getTagERKi@Base 2.48.3-1
 _ZN15NCFileSelection7addLineERKSt6vectorISsSaISsEEP10NCFileInfo@Base 2.48.3-1
 _ZN15NCFileSelectionC1EP7YWidgetP12YTableHeaderNS_19NCFileSelectionTypeERKSs@Base 2.48.3-1
 _ZN15NCFileSelectionC2EP7YWidgetP12YTableHeaderNS_19NCFileSelectionTypeERKSs@Base 2.48.3-1
 _ZN15NCFileSelectionD0Ev@Base 2.48.3-1
 _ZN15NCFileSelectionD1Ev@Base 2.48.3-1
 _ZN15NCFileSelectionD2Ev@Base 2.48.3-1
 _ZN15NCInputTextBase10setEnabledEb@Base 2.48.3-1
 _ZN15NCInputTextBase14preferredWidthEv@Base 2.48.3-1
 _ZN15NCInputTextBase15preferredHeightEv@Base 2.48.3-1
 _ZN15NCInputTextBase7setSizeEii@Base 2.48.3-1
 _ZN15NCInputTextBase7tUpdateEv@Base 2.48.3-1
 _ZN15NCInputTextBase7wCreateERK5wrect@Base 2.48.3-1
 _ZN15NCInputTextBase7wDeleteEv@Base 2.48.3-1
 _ZN15NCInputTextBase7wRedrawEv@Base 2.48.3-1
 _ZN15NCInputTextBase9setCurPosEj@Base 2.48.3-1
 _ZN15NCInputTextBase9setDefszeEv@Base 2.48.3-1
 _ZN15NCInputTextBaseC1EP7YWidgetbjj@Base 2.48.3-1
 _ZN15NCInputTextBaseC2EP7YWidgetbjj@Base 2.48.3-1
 _ZN15NCInputTextBaseD0Ev@Base 2.48.3-1
 _ZN15NCInputTextBaseD1Ev@Base 2.48.3-1
 _ZN15NCInputTextBaseD2Ev@Base 2.48.3-1
 _ZN15NCMultiLineEdit10setEnabledEb@Base 2.48.3-1
 _ZN15NCMultiLineEdit12wHandleInputEj@Base 2.48.3-1
 _ZN15NCMultiLineEdit14preferredWidthEv@Base 2.48.3-1
 _ZN15NCMultiLineEdit15preferredHeightEv@Base 2.48.3-1
 _ZN15NCMultiLineEdit16setKeyboardFocusEv@Base 2.48.3-1
 _ZN15NCMultiLineEdit17setInputMaxLengthEi@Base 2.48.3-1
 _ZN15NCMultiLineEdit5valueEv@Base 2.48.3-1
 _ZN15NCMultiLineEdit7DrawPadEv@Base 2.48.3-1
 _ZN15NCMultiLineEdit7setSizeEii@Base 2.48.3-1
 _ZN15NCMultiLineEdit7wRedrawEv@Base 2.48.3-1
 _ZN15NCMultiLineEdit8setLabelERKSs@Base 2.48.3-1
 _ZN15NCMultiLineEdit8setValueERKSs@Base 2.48.3-1
 _ZN15NCMultiLineEdit9CreatePadEv@Base 2.48.3-1
 _ZN15NCMultiLineEditC1EP7YWidgetRKSs@Base 2.48.3-1
 _ZN15NCMultiLineEditC2EP7YWidgetRKSs@Base 2.48.3-1
 _ZN15NCMultiLineEditD0Ev@Base 2.48.3-1
 _ZN15NCMultiLineEditD1Ev@Base 2.48.3-1
 _ZN15NCMultiLineEditD2Ev@Base 2.48.3-1
 _ZN15NCWidgetFactory10createTreeEP7YWidgetRKSsbb@Base 2.48.3-1
 _ZN15NCWidgetFactory11createEmptyEP7YWidget@Base 2.48.3-1
 _ZN15NCWidgetFactory11createFrameEP7YWidgetRKSs@Base 2.48.3-1
 _ZN15NCWidgetFactory11createImageEP7YWidgetRKSsb@Base 2.48.3-1
 _ZN15NCWidgetFactory11createLabelEP7YWidgetRKSsbb@Base 2.48.3-1
 _ZN15NCWidgetFactory11createTableEP7YWidgetP12YTableHeaderb@Base 2.48.3-1
 _ZN15NCWidgetFactory12createDialogE11YDialogType16YDialogColorMode@Base 2.48.3-1
 _ZN15NCWidgetFactory12createSquashEP7YWidgetbb@Base 2.48.3-1
 _ZN15NCWidgetFactory13createLogViewEP7YWidgetRKSsii@Base 2.48.3-1
 _ZN15NCWidgetFactory13createSpacingEP7YWidget12YUIDimensionbd@Base 2.48.3-1
 _ZN15NCWidgetFactory14createCheckBoxEP7YWidgetRKSsb@Base 2.48.3-1
 _ZN15NCWidgetFactory14createComboBoxEP7YWidgetRKSsb@Base 2.48.3-1
 _ZN15NCWidgetFactory14createIntFieldEP7YWidgetRKSsiii@Base 2.48.3-1
 _ZN15NCWidgetFactory14createRichTextEP7YWidgetRKSsb@Base 2.48.3-1
 _ZN15NCWidgetFactory15createAlignmentEP7YWidget14YAlignmentTypeS2_@Base 2.48.3-1
 _ZN15NCWidgetFactory15createButtonBoxEP7YWidget@Base 2.48.3-1
 _ZN15NCWidgetFactory15createLayoutBoxEP7YWidget12YUIDimension@Base 2.48.3-1
 _ZN15NCWidgetFactory16createInputFieldEP7YWidgetRKSsb@Base 2.48.3-1
 _ZN15NCWidgetFactory16createMenuButtonEP7YWidgetRKSs@Base 2.48.3-1
 _ZN15NCWidgetFactory16createPkgSpecialEP7YWidgetRKSs@Base 2.48.3-1
 _ZN15NCWidgetFactory16createPushButtonEP7YWidgetRKSs@Base 2.48.3-1
 _ZN15NCWidgetFactory17createProgressBarEP7YWidgetRKSsi@Base 2.48.3-1
 _ZN15NCWidgetFactory17createRadioButtonEP7YWidgetRKSsb@Base 2.48.3-1
 _ZN15NCWidgetFactory18createReplacePointEP7YWidget@Base 2.48.3-1
 _ZN15NCWidgetFactory18createSelectionBoxEP7YWidgetRKSs@Base 2.48.3-1
 _ZN15NCWidgetFactory19createBusyIndicatorEP7YWidgetRKSsi@Base 2.48.3-1
 _ZN15NCWidgetFactory19createCheckBoxFrameEP7YWidgetRKSsb@Base 2.48.3-1
 _ZN15NCWidgetFactory19createMultiLineEditEP7YWidgetRKSs@Base 2.48.3-1
 _ZN15NCWidgetFactory21createPackageSelectorEP7YWidgetl@Base 2.48.3-1
 _ZN15NCWidgetFactory22createRadioButtonGroupEP7YWidget@Base 2.48.3-1
 _ZN15NCWidgetFactory23createMultiSelectionBoxEP7YWidgetRKSs@Base 2.48.3-1
 _ZN15NCWidgetFactoryC1Ev@Base 2.48.3-1
 _ZN15NCWidgetFactoryC2Ev@Base 2.48.3-1
 _ZN15NCWidgetFactoryD0Ev@Base 2.48.3-1
 _ZN15NCWidgetFactoryD1Ev@Base 2.48.3-1
 _ZN15NCWidgetFactoryD2Ev@Base 2.48.3-1
 _ZN16NCDirectoryTable10fillHeaderEv@Base 2.48.3-1
 _ZN16NCDirectoryTable12wHandleInputEj@Base 2.48.3-1
 _ZN16NCDirectoryTable15createListEntryEP10NCFileInfo@Base 2.48.3-1
 _ZN16NCDirectoryTable8fillListEv@Base 2.48.3-1
 _ZN16NCDirectoryTableC1EP7YWidgetP12YTableHeaderN15NCFileSelection19NCFileSelectionTypeERKSs@Base 2.48.3-1
 _ZN16NCDirectoryTableC2EP7YWidgetP12YTableHeaderN15NCFileSelection19NCFileSelectionTypeERKSs@Base 2.48.3-1
 _ZN16NCDirectoryTableD0Ev@Base 2.48.3-1
 _ZN16NCDirectoryTableD1Ev@Base 2.48.3-1
 _ZN16NCDirectoryTableD2Ev@Base 2.48.3-1
 _ZN16NCPopupTextEntry9postAgainEv@Base 2.48.3-1
 _ZN16NCPopupTextEntryC1E4wposRKSsS2_jjN12NCInputField5FTYPEE@Base 2.48.3-1
 _ZN16NCPopupTextEntryC2E4wposRKSsS2_jjN12NCInputField5FTYPEE@Base 2.48.3-1
 _ZN16NCPopupTextEntryD0Ev@Base 2.48.3-1
 _ZN16NCPopupTextEntryD1Ev@Base 2.48.3-1
 _ZN16NCPopupTextEntryD2Ev@Base 2.48.3-1
 _ZN16NCursesExceptionD0Ev@Base 2.48.3-1
 _ZN16NCursesExceptionD1Ev@Base 2.48.3-1
 _ZN16NCursesExceptionD2Ev@Base 2.48.3-1
 _ZN16NCursesUserPanelI8NCDialogE11setUserDataEPKS0_@Base 2.48.3-1
 _ZN16NCursesUserPanelI8NCDialogED0Ev@Base 2.48.3-1
 _ZN16NCursesUserPanelI8NCDialogED1Ev@Base 2.48.3-1
 _ZN16NCursesUserPanelI8NCDialogED2Ev@Base 2.48.3-1
 _ZN16YSelectionWidget17setShortcutStringERKSs@Base 2.48.3-1
 _ZN17YSimpleInputField17setShortcutStringERKSs@Base 2.48.3-1
 _ZN17YSimpleInputField17userInputPropertyEv@Base 2.48.3-1
 _ZN18NCFileSelectionTagC1EP10NCFileInfo@Base 2.48.3-1
 _ZN18NCFileSelectionTagC2EP10NCFileInfo@Base 2.48.3-1
 _ZN18NCFileSelectionTagD0Ev@Base 2.48.3-1
 _ZN18NCFileSelectionTagD1Ev@Base 2.48.3-1
 _ZN18NCFileSelectionTagD2Ev@Base 2.48.3-1
 _ZN18NCRadioButtonGroup10setEnabledEb@Base 2.48.3-1
 _ZN18NCRadioButtonGroup14addRadioButtonEP12YRadioButton@Base 2.48.3-1
 _ZN18NCRadioButtonGroup14preferredWidthEv@Base 2.48.3-1
 _ZN18NCRadioButtonGroup15focusNextButtonEv@Base 2.48.3-1
 _ZN18NCRadioButtonGroup15focusPrevButtonEv@Base 2.48.3-1
 _ZN18NCRadioButtonGroup15preferredHeightEv@Base 2.48.3-1
 _ZN18NCRadioButtonGroup17removeRadioButtonEP12YRadioButton@Base 2.48.3-1
 _ZN18NCRadioButtonGroup7setSizeEii@Base 2.48.3-1
 _ZN18NCRadioButtonGroupC1EP7YWidget@Base 2.48.3-1
 _ZN18NCRadioButtonGroupC2EP7YWidget@Base 2.48.3-1
 _ZN18NCRadioButtonGroupD0Ev@Base 2.48.3-1
 _ZN18NCRadioButtonGroupD1Ev@Base 2.48.3-1
 _ZN18NCRadioButtonGroupD2Ev@Base 2.48.3-1
 _ZN18NCTableSortDefault4sortEN9__gnu_cxx17__normal_iteratorIPP11NCTableLineSt6vectorIS3_SaIS3_EEEES8_i@Base 2.48.3-1
 _ZN18NCTableSortDefaultD0Ev@Base 2.48.3-1
 _ZN18NCTableSortDefaultD1Ev@Base 2.48.3-1
 _ZN18NCTableSortDefaultD2Ev@Base 2.48.3-1
 _ZN18YMultiSelectionBox17userInputPropertyEv@Base 2.48.3-1
 _ZN18YUIPluginExceptionC1ERKSs@Base 2.48.3-1
 _ZN18YUIPluginExceptionC2ERKSs@Base 2.48.3-1
 _ZN18YUIPluginExceptionD0Ev@Base 2.48.3-1
 _ZN18YUIPluginExceptionD1Ev@Base 2.48.3-1
 _ZN18YUIPluginExceptionD2Ev@Base 2.48.3-1
 _ZN19NCMultiSelectionBox10selectItemEP5YItemb@Base 2.48.3-1
 _ZN19NCMultiSelectionBox10setEnabledEb@Base 2.48.3-1
 _ZN19NCMultiSelectionBox11currentItemEv@Base 2.48.3-1
 _ZN19NCMultiSelectionBox12wHandleInputEj@Base 2.48.3-1
 _ZN19NCMultiSelectionBox14deleteAllItemsEv@Base 2.48.3-1
 _ZN19NCMultiSelectionBox14isItemSelectedEP5YItem@Base 2.48.3-1
 _ZN19NCMultiSelectionBox14preferredWidthEv@Base 2.48.3-1
 _ZN19NCMultiSelectionBox14setCurrentItemEP5YItem@Base 2.48.3-1
 _ZN19NCMultiSelectionBox15preferredHeightEv@Base 2.48.3-1
 _ZN19NCMultiSelectionBox16deselectAllItemsEv@Base 2.48.3-1
 _ZN19NCMultiSelectionBox16setKeyboardFocusEv@Base 2.48.3-1
 _ZN19NCMultiSelectionBox17toggleCurrentItemEv@Base 2.48.3-1
 _ZN19NCMultiSelectionBox19doneMultipleChangesEv@Base 2.48.3-1
 _ZN19NCMultiSelectionBox20startMultipleChangesEv@Base 2.48.3-1
 _ZN19NCMultiSelectionBox7addItemEP5YItem@Base 2.48.3-1
 _ZN19NCMultiSelectionBox7setSizeEii@Base 2.48.3-1
 _ZN19NCMultiSelectionBox7tagCellEi@Base 2.48.3-1
 _ZN19NCMultiSelectionBox8setLabelERKSs@Base 2.48.3-1
 _ZN19NCMultiSelectionBox8wRecodedEv@Base 2.48.3-1
 _ZN19NCMultiSelectionBox9CreatePadEv@Base 2.48.3-1
 _ZN19NCMultiSelectionBoxC1EP7YWidgetRKSs@Base 2.48.3-1
 _ZN19NCMultiSelectionBoxC2EP7YWidgetRKSs@Base 2.48.3-1
 _ZN19NCMultiSelectionBoxD0Ev@Base 2.48.3-1
 _ZN19NCMultiSelectionBoxD1Ev@Base 2.48.3-1
 _ZN19NCMultiSelectionBoxD2Ev@Base 2.48.3-1
 _ZN20NCAskForExistingFile11getFileNameEv@Base 2.48.3-1
 _ZN20NCAskForExistingFileC1E4wposRKSsS2_S2_@Base 2.48.3-1
 _ZN20NCAskForExistingFileC2E4wposRKSsS2_S2_@Base 2.48.3-1
 _ZN20NCAskForExistingFileD0Ev@Base 2.48.3-1
 _ZN20NCAskForExistingFileD1Ev@Base 2.48.3-1
 _ZN20NCAskForExistingFileD2Ev@Base 2.48.3-1
 _ZN20NCAskForSaveFileName11getFileNameEv@Base 2.48.3-1
 _ZN20NCAskForSaveFileNameC1E4wposRKSsS2_S2_@Base 2.48.3-1
 _ZN20NCAskForSaveFileNameC2E4wposRKSsS2_S2_@Base 2.48.3-1
 _ZN20NCAskForSaveFileNameD0Ev@Base 2.48.3-1
 _ZN20NCAskForSaveFileNameD1Ev@Base 2.48.3-1
 _ZN20NCAskForSaveFileNameD2Ev@Base 2.48.3-1
 _ZN21NCursesPanelExceptionD0Ev@Base 2.48.3-1
 _ZN21NCursesPanelExceptionD1Ev@Base 2.48.3-1
 _ZN21NCursesPanelExceptionD2Ev@Base 2.48.3-1
 _ZN22YPackageSelectorPluginD0Ev@Base 2.48.3-1
 _ZN22YPackageSelectorPluginD1Ev@Base 2.48.3-1
 _ZN22YPackageSelectorPluginD2Ev@Base 2.48.3-1
 _ZN23NCOptionalWidgetFactory10hasDumbTabEv@Base 2.48.3-1
 _ZN23NCOptionalWidgetFactory12hasDateFieldEv@Base 2.48.3-1
 _ZN23NCOptionalWidgetFactory12hasTimeFieldEv@Base 2.48.3-1
 _ZN23NCOptionalWidgetFactory13createDumbTabEP7YWidget@Base 2.48.3-1
 _ZN23NCOptionalWidgetFactory15createDateFieldEP7YWidgetRKSs@Base 2.48.3-1
 _ZN23NCOptionalWidgetFactory15createTimeFieldEP7YWidgetRKSs@Base 2.48.3-1
 _ZN23NCOptionalWidgetFactoryC1Ev@Base 2.48.3-1
 _ZN23NCOptionalWidgetFactoryC2Ev@Base 2.48.3-1
 _ZN23NCOptionalWidgetFactoryD0Ev@Base 2.48.3-1
 _ZN23NCOptionalWidgetFactoryD1Ev@Base 2.48.3-1
 _ZN23NCOptionalWidgetFactoryD2Ev@Base 2.48.3-1
 _ZN23NCTableSortStrategyBaseD0Ev@Base 2.48.3-1
 _ZN23NCTableSortStrategyBaseD1Ev@Base 2.48.3-1
 _ZN23NCTableSortStrategyBaseD2Ev@Base 2.48.3-1
 _ZN23YUINullPointerExceptionC1Ev@Base 2.48.3-1
 _ZN23YUINullPointerExceptionC2Ev@Base 2.48.3-1
 _ZN23YUINullPointerExceptionD0Ev@Base 2.48.3-1
 _ZN23YUINullPointerExceptionD1Ev@Base 2.48.3-1
 _ZN23YUINullPointerExceptionD2Ev@Base 2.48.3-1
 _ZN23YUIOutOfMemoryExceptionC1Ev@Base 2.48.3-1
 _ZN23YUIOutOfMemoryExceptionC2Ev@Base 2.48.3-1
 _ZN23YUIOutOfMemoryExceptionD0Ev@Base 2.48.3-1
 _ZN23YUIOutOfMemoryExceptionD1Ev@Base 2.48.3-1
 _ZN23YUIOutOfMemoryExceptionD2Ev@Base 2.48.3-1
 _ZN25NCAskForExistingDirectory12createLayoutERKSsS1_@Base 2.48.3-1
 _ZN25NCAskForExistingDirectory12showDirPopupEv@Base 2.48.3-1
 _ZN25NCAskForExistingDirectory12wHandleInputEj@Base 2.48.3-1
 _ZN25NCAskForExistingDirectory14preferredWidthEv@Base 2.48.3-1
 _ZN25NCAskForExistingDirectory15preferredHeightEv@Base 2.48.3-1
 _ZN25NCAskForExistingDirectory16getCheckBoxValueEP10NCCheckBox@Base 2.48.3-1
 _ZN25NCAskForExistingDirectory9postAgainEv@Base 2.48.3-1
 _ZN25NCAskForExistingDirectoryC1E4wposRKSsS2_@Base 2.48.3-1
 _ZN25NCAskForExistingDirectoryC2E4wposRKSsS2_@Base 2.48.3-1
 _ZN25NCAskForExistingDirectoryD0Ev@Base 2.48.3-1
 _ZN25NCAskForExistingDirectoryD1Ev@Base 2.48.3-1
 _ZN25NCAskForExistingDirectoryD2Ev@Base 2.48.3-1
 _ZN27NCPackageSelectorPluginStub15runPkgSelectionEP7YDialogP7YWidget@Base 2.48.3-1
 _ZN27NCPackageSelectorPluginStub16createPkgSpecialEP7YWidgetRKSs@Base 2.48.3-1
 _ZN27NCPackageSelectorPluginStub21createPackageSelectorEP7YWidgetl@Base 2.48.3-1
 _ZN27NCPackageSelectorPluginStubC1Ev@Base 2.48.3-1
 _ZN27NCPackageSelectorPluginStubC2Ev@Base 2.48.3-1
 _ZN27NCPackageSelectorPluginStubD0Ev@Base 2.48.3-1
 _ZN27NCPackageSelectorPluginStubD1Ev@Base 2.48.3-1
 _ZN27NCPackageSelectorPluginStubD2Ev@Base 2.48.3-1
 _ZN3YUI11blockEventsEb@Base 2.48.3-1
 _ZN3YUI12deleteNotifyEP7YWidget@Base 2.48.3-1
 _ZN4wposD0Ev@Base 2.48.3-1
 _ZN4wposD1Ev@Base 2.48.3-1
 _ZN4wposD2Ev@Base 2.48.3-1
 _ZN4wszeD0Ev@Base 2.48.3-1
 _ZN4wszeD1Ev@Base 2.48.3-1
 _ZN4wszeD2Ev@Base 2.48.3-1
 _ZN5NCPad10directDrawER13NCursesWindow5wrectj@Base 2.48.3-1
 _ZN5NCPad11handleInputEj@Base 2.48.3-1
 _ZN5NCPad16updateScrollHintEv@Base 2.48.3-1
 _ZN5NCPad6resizeE4wsze@Base 2.48.3-1
 _ZN5NCPad6setposERK4wpos@Base 2.48.3-1
 _ZN5NCPad6setposEv@Base 2.48.3-1
 _ZN5NCPad6updateEv@Base 2.48.3-1
 _ZN5NCPad7DestwinEP13NCursesWindow@Base 2.48.3-1
 _ZN5NCPad8ScrlLineEi@Base 2.48.3-1
 _ZN5NCPad8dirtyPadEv@Base 2.48.3-1
 _ZN5NCPad8setDirtyEv@Base 2.48.3-1
 _ZN5NCPad8wRecodedEv@Base 2.48.3-1
 _ZN5NCPadC1EiiRK8NCWidget@Base 2.48.3-1
 _ZN5NCPadC2EiiRK8NCWidget@Base 2.48.3-1
 _ZN5NCPadD0Ev@Base 2.48.3-1
 _ZN5NCPadD1Ev@Base 2.48.3-1
 _ZN5NCPadD2Ev@Base 2.48.3-1
 _ZN5YItem11childrenEndEv@Base 2.48.3-1
 _ZN5YItem13childrenBeginEv@Base 2.48.3-1
 _ZN5YItemD0Ev@Base 2.48.3-1
 _ZN5YItemD1Ev@Base 2.48.3-1
 _ZN5YItemD2Ev@Base 2.48.3-1
 _ZN5YTree17userInputPropertyEv@Base 2.48.3-1
 _ZN5boost15throw_exceptionINS_16bad_lexical_castEEEvRKT_@Base 2.48.3-1
 _ZN5boost15throw_exceptionINS_9gregorian11bad_weekdayEEEvRKT_@Base 2.48.3-1
 _ZN5boost15throw_exceptionINS_9gregorian15bad_day_of_yearEEEvRKT_@Base 2.48.3-1
 _ZN5boost15throw_exceptionINS_9gregorian16bad_day_of_monthEEEvRKT_@Base 2.48.3-1
 _ZN5boost15throw_exceptionINS_9gregorian8bad_yearEEEvRKT_@Base 2.48.3-1
 _ZN5boost15throw_exceptionINS_9gregorian9bad_monthEEEvRKT_@Base 2.48.3-1
 _ZN5boost16bad_lexical_castD0Ev@Base 2.48.3-1
 _ZN5boost16bad_lexical_castD1Ev@Base 2.48.3-1
 _ZN5boost16bad_lexical_castD2Ev@Base 2.48.3-1
 _ZN5boost16exception_detail10clone_baseD0Ev@Base 2.48.3-1
 _ZN5boost16exception_detail10clone_baseD1Ev@Base 2.48.3-1
 _ZN5boost16exception_detail10clone_baseD2Ev@Base 2.48.3-1
 _ZN5boost16exception_detail10clone_implINS0_19error_info_injectorINS_16bad_lexical_castEEEED0Ev@Base 2.48.3-1
 _ZN5boost16exception_detail10clone_implINS0_19error_info_injectorINS_16bad_lexical_castEEEED1Ev@Base 2.48.3-1
 _ZN5boost16exception_detail10clone_implINS0_19error_info_injectorINS_9gregorian11bad_weekdayEEEED0Ev@Base 2.48.3-1
 _ZN5boost16exception_detail10clone_implINS0_19error_info_injectorINS_9gregorian11bad_weekdayEEEED1Ev@Base 2.48.3-1
 _ZN5boost16exception_detail10clone_implINS0_19error_info_injectorINS_9gregorian15bad_day_of_yearEEEED0Ev@Base 2.48.3-1
 _ZN5boost16exception_detail10clone_implINS0_19error_info_injectorINS_9gregorian15bad_day_of_yearEEEED1Ev@Base 2.48.3-1
 _ZN5boost16exception_detail10clone_implINS0_19error_info_injectorINS_9gregorian16bad_day_of_monthEEEED0Ev@Base 2.48.3-1
 _ZN5boost16exception_detail10clone_implINS0_19error_info_injectorINS_9gregorian16bad_day_of_monthEEEED1Ev@Base 2.48.3-1
 _ZN5boost16exception_detail10clone_implINS0_19error_info_injectorINS_9gregorian8bad_yearEEEED0Ev@Base 2.48.3-1
 _ZN5boost16exception_detail10clone_implINS0_19error_info_injectorINS_9gregorian8bad_yearEEEED1Ev@Base 2.48.3-1
 _ZN5boost16exception_detail10clone_implINS0_19error_info_injectorINS_9gregorian9bad_monthEEEED0Ev@Base 2.48.3-1
 _ZN5boost16exception_detail10clone_implINS0_19error_info_injectorINS_9gregorian9bad_monthEEEED1Ev@Base 2.48.3-1
 _ZN5boost16exception_detail12refcount_ptrINS0_20error_info_containerEE7releaseEv@Base 2.48.3-1
 _ZN5boost16exception_detail19error_info_injectorINS_16bad_lexical_castEED0Ev@Base 2.48.3-1
 _ZN5boost16exception_detail19error_info_injectorINS_16bad_lexical_castEED1Ev@Base 2.48.3-1
 _ZN5boost16exception_detail19error_info_injectorINS_16bad_lexical_castEED2Ev@Base 2.48.3-1
 _ZN5boost16exception_detail19error_info_injectorINS_9gregorian11bad_weekdayEED0Ev@Base 2.48.3-1
 _ZN5boost16exception_detail19error_info_injectorINS_9gregorian11bad_weekdayEED1Ev@Base 2.48.3-1
 _ZN5boost16exception_detail19error_info_injectorINS_9gregorian11bad_weekdayEED2Ev@Base 2.48.3-1
 _ZN5boost16exception_detail19error_info_injectorINS_9gregorian15bad_day_of_yearEED0Ev@Base 2.48.3-1
 _ZN5boost16exception_detail19error_info_injectorINS_9gregorian15bad_day_of_yearEED1Ev@Base 2.48.3-1
 _ZN5boost16exception_detail19error_info_injectorINS_9gregorian15bad_day_of_yearEED2Ev@Base 2.48.3-1
 _ZN5boost16exception_detail19error_info_injectorINS_9gregorian16bad_day_of_monthEED0Ev@Base 2.48.3-1
 _ZN5boost16exception_detail19error_info_injectorINS_9gregorian16bad_day_of_monthEED1Ev@Base 2.48.3-1
 _ZN5boost16exception_detail19error_info_injectorINS_9gregorian16bad_day_of_monthEED2Ev@Base 2.48.3-1
 _ZN5boost16exception_detail19error_info_injectorINS_9gregorian8bad_yearEED0Ev@Base 2.48.3-1
 _ZN5boost16exception_detail19error_info_injectorINS_9gregorian8bad_yearEED1Ev@Base 2.48.3-1
 _ZN5boost16exception_detail19error_info_injectorINS_9gregorian8bad_yearEED2Ev@Base 2.48.3-1
 _ZN5boost16exception_detail19error_info_injectorINS_9gregorian9bad_monthEED0Ev@Base 2.48.3-1
 _ZN5boost16exception_detail19error_info_injectorINS_9gregorian9bad_monthEED1Ev@Base 2.48.3-1
 _ZN5boost16exception_detail19error_info_injectorINS_9gregorian9bad_monthEED2Ev@Base 2.48.3-1
 _ZN5boost9algorithm6detail21find_format_all_impl2ISbIwSt11char_traitsIwESaIwEENS1_13first_finderFIPKcNS0_8is_equalEEENS1_13const_formatFINS_14iterator_rangeIS9_EEEENSD_IN9__gnu_cxx17__normal_iteratorIPwS6_EEEESE_EEvRT_T0_T1_T2_T3_@Base 2.48.3-1
 _ZN5boost9algorithm6detail21find_format_all_impl2ISbIwSt11char_traitsIwESaIwEENS1_13first_finderFIPKwNS0_8is_equalEEENS1_13const_formatFINS_14iterator_rangeIS9_EEEENSD_IN9__gnu_cxx17__normal_iteratorIPwS6_EEEESE_EEvRT_T0_T1_T2_T3_@Base 2.48.3-1
 _ZN5boost9algorithm6detail21find_format_all_impl2ISbIwSt11char_traitsIwESaIwEENS1_13first_finderFIPKwNS0_8is_equalEEENS1_13empty_formatFIwEENS_14iterator_rangeIN9__gnu_cxx17__normal_iteratorIPwS6_EEEENS1_15empty_containerIwEEEEvRT_T0_T1_T2_T3_@Base 2.48.3-1
 _ZN5boost9algorithm6detail22process_segment_helperILb0EEclISt5dequeIwSaIwEESbIwSt11char_traitsIwES6_EN9__gnu_cxx17__normal_iteratorIPwSA_EEEET1_RT_RT0_SF_SF_SF_@Base 2.48.3-1
 _ZN5boost9date_time13period_parserINS_9gregorian4dateEwE24default_period_separatorE@Base 2.48.3-1
 _ZN5boost9date_time13period_parserINS_9gregorian4dateEwE30default_period_start_delimeterE@Base 2.48.3-1
 _ZN5boost9date_time13period_parserINS_9gregorian4dateEwE39default_period_open_range_end_delimeterE@Base 2.48.3-1
 _ZN5boost9date_time13period_parserINS_9gregorian4dateEwE41default_period_closed_range_end_delimeterE@Base 2.48.3-1
 _ZN5boost9date_time13period_parserINS_9gregorian4dateEwEC1ENS4_19period_range_optionEPKwS7_S7_S7_@Base 2.48.3-1
 _ZN5boost9date_time13period_parserINS_9gregorian4dateEwEC2ENS4_19period_range_optionEPKwS7_S7_S7_@Base 2.48.3-1
 _ZN5boost9date_time16date_input_facetINS_9gregorian4dateEwSt19istreambuf_iteratorIwSt11char_traitsIwEEE14set_iso_formatEv@Base 2.48.3-1
 _ZN5boost9date_time16date_input_facetINS_9gregorian4dateEwSt19istreambuf_iteratorIwSt11char_traitsIwEEE18short_month_formatE@Base 2.48.3-1
 _ZN5boost9date_time16date_input_facetINS_9gregorian4dateEwSt19istreambuf_iteratorIwSt11char_traitsIwEEE19default_date_formatE@Base 2.48.3-1
 _ZN5boost9date_time16date_input_facetINS_9gregorian4dateEwSt19istreambuf_iteratorIwSt11char_traitsIwEEE20iso_format_specifierE@Base 2.48.3-1
 _ZN5boost9date_time16date_input_facetINS_9gregorian4dateEwSt19istreambuf_iteratorIwSt11char_traitsIwEEE20short_weekday_formatE@Base 2.48.3-1
 _ZN5boost9date_time16date_input_facetINS_9gregorian4dateEwSt19istreambuf_iteratorIwSt11char_traitsIwEEE22four_digit_year_formatE@Base 2.48.3-1
 _ZN5boost9date_time16date_input_facetINS_9gregorian4dateEwSt19istreambuf_iteratorIwSt11char_traitsIwEEE23set_iso_extended_formatEv@Base 2.48.3-1
 _ZN5boost9date_time16date_input_facetINS_9gregorian4dateEwSt19istreambuf_iteratorIwSt11char_traitsIwEEE29iso_format_extended_specifierE@Base 2.48.3-1
 _ZN5boost9date_time16date_input_facetINS_9gregorian4dateEwSt19istreambuf_iteratorIwSt11char_traitsIwEEE2idE@Base 2.48.3-1
 _ZN5boost9date_time16date_input_facetINS_9gregorian4dateEwSt19istreambuf_iteratorIwSt11char_traitsIwEEED0Ev@Base 2.48.3-1
 _ZN5boost9date_time16date_input_facetINS_9gregorian4dateEwSt19istreambuf_iteratorIwSt11char_traitsIwEEED1Ev@Base 2.48.3-1
 _ZN5boost9date_time16date_input_facetINS_9gregorian4dateEwSt19istreambuf_iteratorIwSt11char_traitsIwEEED2Ev@Base 2.48.3-1
 _ZN5boost9date_time17string_parse_treeIwE6insertERKSbIwSt11char_traitsIwESaIwEEt@Base 2.48.3-1
 _ZN5boost9date_time17string_parse_treeIwEC1ESt6vectorISbIwSt11char_traitsIwESaIwEESaIS7_EEj@Base 2.48.3-1
 _ZN5boost9date_time17string_parse_treeIwEC2ESt6vectorISbIwSt11char_traitsIwESaIwEESaIS7_EEj@Base 2.48.3-1
 _ZN5boost9date_time18format_date_parserINS_9gregorian4dateEwEC1ERKSbIwSt11char_traitsIwESaIwEERKSt6locale@Base 2.48.3-1
 _ZN5boost9date_time18format_date_parserINS_9gregorian4dateEwEC2ERKSbIwSt11char_traitsIwESaIwEERKSt6locale@Base 2.48.3-1
 _ZN5boost9date_time18format_date_parserINS_9gregorian4dateEwED1Ev@Base 2.48.3-1
 _ZN5boost9date_time18format_date_parserINS_9gregorian4dateEwED2Ev@Base 2.48.3-1
 _ZN5boost9date_time19fixed_string_to_intIswEET_RSt19istreambuf_iteratorIT0_St11char_traitsIS4_EES8_RNS0_18parse_match_resultIS4_EEjRKS4_@Base 2.48.3-1
 _ZN5boost9date_time20gather_month_stringsIwEESt6vectorISbIT_St11char_traitsIS3_ESaIS3_EESaIS7_EERKSt6localeb@Base 2.48.3-1
 _ZN5boost9date_time21date_generator_parserINS_9gregorian4dateEwE11last_stringE@Base 2.48.3-1
 _ZN5boost9date_time21date_generator_parserINS_9gregorian4dateEwE12after_stringE@Base 2.48.3-1
 _ZN5boost9date_time21date_generator_parserINS_9gregorian4dateEwE12fifth_stringE@Base 2.48.3-1
 _ZN5boost9date_time21date_generator_parserINS_9gregorian4dateEwE12first_stringE@Base 2.48.3-1
 _ZN5boost9date_time21date_generator_parserINS_9gregorian4dateEwE12third_stringE@Base 2.48.3-1
 _ZN5boost9date_time21date_generator_parserINS_9gregorian4dateEwE13before_stringE@Base 2.48.3-1
 _ZN5boost9date_time21date_generator_parserINS_9gregorian4dateEwE13fourth_stringE@Base 2.48.3-1
 _ZN5boost9date_time21date_generator_parserINS_9gregorian4dateEwE13second_stringE@Base 2.48.3-1
 _ZN5boost9date_time21date_generator_parserINS_9gregorian4dateEwE9of_stringE@Base 2.48.3-1
 _ZN5boost9date_time21date_generator_parserINS_9gregorian4dateEwEC1Ev@Base 2.48.3-1
 _ZN5boost9date_time21date_generator_parserINS_9gregorian4dateEwEC2Ev@Base 2.48.3-1
 _ZN5boost9date_time21special_values_parserINS_9gregorian4dateEwE11nadt_stringE@Base 2.48.3-1
 _ZN5boost9date_time21special_values_parserINS_9gregorian4dateEwE14neg_inf_stringE@Base 2.48.3-1
 _ZN5boost9date_time21special_values_parserINS_9gregorian4dateEwE14pos_inf_stringE@Base 2.48.3-1
 _ZN5boost9date_time21special_values_parserINS_9gregorian4dateEwE20max_date_time_stringE@Base 2.48.3-1
 _ZN5boost9date_time21special_values_parserINS_9gregorian4dateEwE20min_date_time_stringE@Base 2.48.3-1
 _ZN5boost9date_time21special_values_parserINS_9gregorian4dateEwEC1Ev@Base 2.48.3-1
 _ZN5boost9date_time21special_values_parserINS_9gregorian4dateEwEC2Ev@Base 2.48.3-1
 _ZN5boost9date_time22gather_weekday_stringsIwEESt6vectorISbIT_St11char_traitsIS3_ESaIS3_EESaIS7_EERKSt6localeb@Base 2.48.3-1
 _ZN5boost9gregorian11bad_weekdayD0Ev@Base 2.48.3-1
 _ZN5boost9gregorian11bad_weekdayD1Ev@Base 2.48.3-1
 _ZN5boost9gregorian11bad_weekdayD2Ev@Base 2.48.3-1
 _ZN5boost9gregorian15bad_day_of_yearD0Ev@Base 2.48.3-1
 _ZN5boost9gregorian15bad_day_of_yearD1Ev@Base 2.48.3-1
 _ZN5boost9gregorian15bad_day_of_yearD2Ev@Base 2.48.3-1
 _ZN5boost9gregorian16bad_day_of_monthD0Ev@Base 2.48.3-1
 _ZN5boost9gregorian16bad_day_of_monthD1Ev@Base 2.48.3-1
 _ZN5boost9gregorian16bad_day_of_monthD2Ev@Base 2.48.3-1
 _ZN5boost9gregorian4dateC1ENS0_9greg_yearENS0_10greg_monthENS0_8greg_dayE@Base 2.48.3-1
 _ZN5boost9gregorian4dateC1ENS_9date_time14special_valuesE@Base 2.48.3-1
 _ZN5boost9gregorian4dateC2ENS0_9greg_yearENS0_10greg_monthENS0_8greg_dayE@Base 2.48.3-1
 _ZN5boost9gregorian4dateC2ENS_9date_time14special_valuesE@Base 2.48.3-1
 _ZN5boost9gregorian8bad_yearD0Ev@Base 2.48.3-1
 _ZN5boost9gregorian8bad_yearD1Ev@Base 2.48.3-1
 _ZN5boost9gregorian8bad_yearD2Ev@Base 2.48.3-1
 _ZN5boost9gregorian9bad_monthD0Ev@Base 2.48.3-1
 _ZN5boost9gregorian9bad_monthD1Ev@Base 2.48.3-1
 _ZN5boost9gregorian9bad_monthD2Ev@Base 2.48.3-1
 _ZN5tnodeIP8NCWidgetE11PreReparentEv@Base 2.48.3-1
 _ZN5tnodeIP8NCWidgetE12PostReparentEv@Base 2.48.3-1
 _ZN5tnodeIP8NCWidgetE13PreDisconnectEv@Base 2.48.3-1
 _ZN5tnodeIP8NCWidgetE14PostDisconnectEv@Base 2.48.3-1
 _ZN5tnodeIP8NCWidgetE4NextEb@Base 2.48.3-1
 _ZN5tnodeIP8NCWidgetE4PrevEb@Base 2.48.3-1
 _ZN5tnodeIP8NCWidgetED0Ev@Base 2.48.3-1
 _ZN5tnodeIP8NCWidgetED1Ev@Base 2.48.3-1
 _ZN5tnodeIP8NCWidgetED2Ev@Base 2.48.3-1
 _ZN5wpairD0Ev@Base 2.48.3-1
 _ZN5wpairD1Ev@Base 2.48.3-1
 _ZN5wpairD2Ev@Base 2.48.3-1
 _ZN5wrectD0Ev@Base 2.48.3-1
 _ZN5wrectD1Ev@Base 2.48.3-1
 _ZN5wrectD2Ev@Base 2.48.3-1
 _ZN6NCTree10selectItemEP5YItemb@Base 2.48.3-1
 _ZN6NCTree10selectItemEi@Base 2.48.3-1
 _ZN6NCTree10setEnabledEb@Base 2.48.3-1
 _ZN6NCTree11currentItemEv@Base 2.48.3-1
 _ZN6NCTree11rebuildTreeEv@Base 2.48.3-1
 _ZN6NCTree12wHandleInputEj@Base 2.48.3-1
 _ZN6NCTree14deleteAllItemsEv@Base 2.48.3-1
 _ZN6NCTree14preferredWidthEv@Base 2.48.3-1
 _ZN6NCTree15CreateTreeLinesEP10NCTreeLineP9NCTreePadP5YItem@Base 2.48.3-1
 _ZN6NCTree15preferredHeightEv@Base 2.48.3-1
 _ZN6NCTree16deselectAllItemsEv@Base 2.48.3-1
 _ZN6NCTree16setKeyboardFocusEv@Base 2.48.3-1
 _ZN6NCTree19doneMultipleChangesEv@Base 2.48.3-1
 _ZN6NCTree20startMultipleChangesEv@Base 2.48.3-1
 _ZN6NCTree7DrawPadEv@Base 2.48.3-1
 _ZN6NCTree7setSizeEii@Base 2.48.3-1
 _ZN6NCTree8setLabelERKSs@Base 2.48.3-1
 _ZN6NCTree9CreatePadEv@Base 2.48.3-1
 _ZN6NCTreeC1EP7YWidgetRKSsbb@Base 2.48.3-1
 _ZN6NCTreeC2EP7YWidgetRKSsbb@Base 2.48.3-1
 _ZN6NCTreeD0Ev@Base 2.48.3-1
 _ZN6NCTreeD1Ev@Base 2.48.3-1
 _ZN6NCTreeD2Ev@Base 2.48.3-1
 _ZN6NCtext4lsetERK8NCstring@Base 2.48.3-1
 _ZN6NCtext6appendERK8NCstring@Base 2.48.3-1
 _ZN6NCtext6lbrsetERK8NCstringm@Base 2.48.3-1
 _ZN6NCtext8emptyStrE@Base 2.48.3-1
 _ZN6NCtextC1ERK8NCstring@Base 2.48.3-1
 _ZN6NCtextC1ERK8NCstringm@Base 2.48.3-1
 _ZN6NCtextC2ERK8NCstring@Base 2.48.3-1
 _ZN6NCtextC2ERK8NCstringm@Base 2.48.3-1
 _ZN6NCtextD0Ev@Base 2.48.3-1
 _ZN6NCtextD1Ev@Base 2.48.3-1
 _ZN6NCtextD2Ev@Base 2.48.3-1
 _ZN6YTable17userInputPropertyEv@Base 2.48.3-1
 _ZN7NCEmpty10setEnabledEb@Base 2.48.3-1
 _ZN7NCEmpty14preferredWidthEv@Base 2.48.3-1
 _ZN7NCEmpty15preferredHeightEv@Base 2.48.3-1
 _ZN7NCEmpty7setSizeEii@Base 2.48.3-1
 _ZN7NCEmptyC1EP7YWidget@Base 2.48.3-1
 _ZN7NCEmptyC2EP7YWidget@Base 2.48.3-1
 _ZN7NCEmptyD0Ev@Base 2.48.3-1
 _ZN7NCEmptyD1Ev@Base 2.48.3-1
 _ZN7NCEmptyD2Ev@Base 2.48.3-1
 _ZN7NCFrame10setEnabledEb@Base 2.48.3-1
 _ZN7NCFrame14preferredWidthEv@Base 2.48.3-1
 _ZN7NCFrame15preferredHeightEv@Base 2.48.3-1
 _ZN7NCFrame7setSizeEii@Base 2.48.3-1
 _ZN7NCFrame7wRedrawEv@Base 2.48.3-1
 _ZN7NCFrame8gotBuddyEv@Base 2.48.3-1
 _ZN7NCFrame8setLabelERKSs@Base 2.48.3-1
 _ZN7NCFrameC1EP7YWidgetRKSs@Base 2.48.3-1
 _ZN7NCFrameC2EP7YWidgetRKSs@Base 2.48.3-1
 _ZN7NCFrameD0Ev@Base 2.48.3-1
 _ZN7NCFrameD1Ev@Base 2.48.3-1
 _ZN7NCFrameD2Ev@Base 2.48.3-1
 _ZN7NCImage10setEnabledEb@Base 2.48.3-1
 _ZN7NCImage14preferredWidthEv@Base 2.48.3-1
 _ZN7NCImage15preferredHeightEv@Base 2.48.3-1
 _ZN7NCImage7setSizeEii@Base 2.48.3-1
 _ZN7NCImageC1EP7YWidgetSsb@Base 2.48.3-1
 _ZN7NCImageC2EP7YWidgetSsb@Base 2.48.3-1
 _ZN7NCImageD0Ev@Base 2.48.3-1
 _ZN7NCImageD1Ev@Base 2.48.3-1
 _ZN7NCImageD2Ev@Base 2.48.3-1
 _ZN7NCLabel10setEnabledEb@Base 2.48.3-1
 _ZN7NCLabel14preferredWidthEv@Base 2.48.3-1
 _ZN7NCLabel15preferredHeightEv@Base 2.48.3-1
 _ZN7NCLabel7setSizeEii@Base 2.48.3-1
 _ZN7NCLabel7setTextERKSs@Base 2.48.3-1
 _ZN7NCLabel7wRedrawEv@Base 2.48.3-1
 _ZN7NCLabelC1EP7YWidgetRKSsbb@Base 2.48.3-1
 _ZN7NCLabelC2EP7YWidgetRKSsbb@Base 2.48.3-1
 _ZN7NCLabelD0Ev@Base 2.48.3-1
 _ZN7NCLabelD1Ev@Base 2.48.3-1
 _ZN7NCLabelD2Ev@Base 2.48.3-1
 _ZN7NCPopup11popupDialogEv@Base 2.48.3-1
 _ZN7NCPopup12wHandleInputEj@Base 2.48.3-1
 _ZN7NCPopup13popdownDialogEv@Base 2.48.3-1
 _ZN7NCPopup4postEP12NCursesEvent@Base 2.48.3-1
 _ZN7NCPopup9postAgainEv@Base 2.48.3-1
 _ZN7NCPopupC1E4wposb@Base 2.48.3-1
 _ZN7NCPopupC2E4wposb@Base 2.48.3-1
 _ZN7NCPopupD0Ev@Base 2.48.3-1
 _ZN7NCPopupD1Ev@Base 2.48.3-1
 _ZN7NCPopupD2Ev@Base 2.48.3-1
 _ZN7NCTable10selectItemEP5YItemb@Base 2.48.3-1
 _ZN7NCTable10setEnabledEb@Base 2.48.3-1
 _ZN7NCTable11cellChangedEPK10YTableCell@Base 2.48.3-1
 _ZN7NCTable11cellChangedEiiRKSs@Base 2.48.3-1
 _ZN7NCTable12setAlignmentEi14YAlignmentType@Base 2.48.3-1
 _ZN7NCTable12setItemByKeyEi@Base 2.48.3-1
 _ZN7NCTable12wHandleInputEj@Base 2.48.3-1
 _ZN7NCTable14deleteAllItemsEv@Base 2.48.3-1
 _ZN7NCTable14getCurrentItemEv@Base 2.48.3-1
 _ZN7NCTable14preferredWidthEv@Base 2.48.3-1
 _ZN7NCTable14setCurrentItemEi@Base 2.48.3-1
 _ZN7NCTable15preferredHeightEv@Base 2.48.3-1
 _ZN7NCTable16deselectAllItemsEv@Base 2.48.3-1
 _ZN7NCTable16setKeyboardFocusEv@Base 2.48.3-1
 _ZN7NCTable17selectCurrentItemEv@Base 2.48.3-1
 _ZN7NCTable17toggleCurrentItemEv@Base 2.48.3-1
 _ZN7NCTable19doneMultipleChangesEv@Base 2.48.3-1
 _ZN7NCTable20startMultipleChangesEv@Base 2.48.3-1
 _ZN7NCTable21getCurrentItemPointerEv@Base 2.48.3-1
 _ZN7NCTable7addItemEP5YItem@Base 2.48.3-1
 _ZN7NCTable7addItemEP5YItemb@Base 2.48.3-1
 _ZN7NCTable7setSizeEii@Base 2.48.3-1
 _ZN7NCTable8addItemsERKSt6vectorIP5YItemSaIS2_EE@Base 2.48.3-1
 _ZN7NCTable8setLabelERKSs@Base 2.48.3-1
 _ZN7NCTable9CreatePadEv@Base 2.48.3-1
 _ZN7NCTable9getHeaderERSt6vectorISsSaISsEE@Base 2.48.3-1
 _ZN7NCTable9setHeaderESt6vectorISsSaISsEE@Base 2.48.3-1
 _ZN7NCTableC1EP7YWidgetP12YTableHeaderb@Base 2.48.3-1
 _ZN7NCTableC2EP7YWidgetP12YTableHeaderb@Base 2.48.3-1
 _ZN7NCTableD0Ev@Base 2.48.3-1
 _ZN7NCTableD1Ev@Base 2.48.3-1
 _ZN7NCTableD2Ev@Base 2.48.3-1
 _ZN7NClabel11stripHotkeyEv@Base 2.48.3-1
 _ZN7NClabel4lsetERK8NCstring@Base 2.48.3-1
 _ZN7NClabelD0Ev@Base 2.48.3-1
 _ZN7NClabelD1Ev@Base 2.48.3-1
 _ZN7NClabelD2Ev@Base 2.48.3-1
 _ZN7NCstyle10changeSyleEv@Base 2.48.3-1
 _ZN7NCstyle5Style10attrGlobalE@Base 2.48.3-1
 _ZN7NCstyle5Style10initDialogEv@Base 2.48.3-1
 _ZN7NCstyle5Style11sanitycheckEv@Base 2.48.3-1
 _ZN7NCstyle5StyleC1ERKS0_@Base 2.48.3-1
 _ZN7NCstyle5StyleC1Ev@Base 2.48.3-1
 _ZN7NCstyle5StyleC2ERKS0_@Base 2.48.3-1
 _ZN7NCstyle5StyleC2Ev@Base 2.48.3-1
 _ZN7NCstyle5StyleD0Ev@Base 2.48.3-1
 _ZN7NCstyle5StyleD1Ev@Base 2.48.3-1
 _ZN7NCstyle5StyleD2Ev@Base 2.48.3-1
 _ZN7NCstyle8dumpNameENS_7STlocalE@Base 2.48.3-1
 _ZN7NCstyle8dumpNameENS_8STglobalE@Base 2.48.3-1
 _ZN7NCstyle8dumpNameENS_8StyleSetE@Base 2.48.3-1
 _ZN7NCstyle9fakestyleENS_8StyleSetE@Base 2.48.3-1
 _ZN7NCstyle9nextStyleEv@Base 2.48.3-1
 _ZN7NCstyleC1ESs@Base 2.48.3-1
 _ZN7NCstyleC2ESs@Base 2.48.3-1
 _ZN7NCstyleD1Ev@Base 2.48.3-1
 _ZN7NCstyleD2Ev@Base 2.48.3-1
 _ZN7NCurses10ScreenShotERKSs@Base 2.48.3-1
 _ZN7NCurses10_knownDlgsE@Base 2.48.3-1
 _ZN7NCurses10init_titleEv@Base 2.48.3-1
 _ZN7NCurses10title_lineEv@Base 2.48.3-1
 _ZN7NCurses11RememberDlgEP8NCDialog@Base 2.48.3-1
 _ZN7NCurses11ResizeEventEv@Base 2.48.3-1
 _ZN7NCurses11init_screenEv@Base 2.48.3-1
 _ZN7NCurses11ripinit_topEP7_win_sti@Base 2.48.3-1
 _ZN7NCurses11want_colorsEv@Base 2.48.3-1
 _ZN7NCurses12ripped_w_topE@Base 2.48.3-1
 _ZN7NCurses12setup_screenEv@Base 2.48.3-1
 _ZN7NCurses13RedirectToLogEv@Base 2.48.3-1
 _ZN7NCurses13SetStatusLineESt3mapIi8NCstringSt4lessIiESaISt4pairIKiS1_EEE@Base 2.48.3-1
 _ZN7NCurses14ripinit_bottomEP7_win_sti@Base 2.48.3-1
 _ZN7NCurses15ripped_w_bottomE@Base 2.48.3-1
 _ZN7NCurses4initEv@Base 2.48.3-1
 _ZN7NCurses5styleEv@Base 2.48.3-1
 _ZN7NCurses6RedrawEv@Base 2.48.3-1
 _ZN7NCurses6UpdateEv@Base 2.48.3-1
 _ZN7NCurses6myselfE@Base 2.48.3-1
 _ZN7NCurses7RefreshEv@Base 2.48.3-1
 _ZN7NCurses8SetTitleERKSs@Base 2.48.3-1
 _ZN7NCurses9ForgetDlgEP8NCDialog@Base 2.48.3-1
 _ZN7NCurses9drawTitleEv@Base 2.48.3-1
 _ZN7NCursesC1Ev@Base 2.48.3-1
 _ZN7NCursesC2Ev@Base 2.48.3-1
 _ZN7NCursesD0Ev@Base 2.48.3-1
 _ZN7NCursesD1Ev@Base 2.48.3-1
 _ZN7NCursesD2Ev@Base 2.48.3-1
 _ZN7YDialog9highlightEP7YWidget@Base 2.48.3-1
 _ZN7YWidget17userInputPropertyEv@Base 2.48.3-1
 _ZN7YWidget19doneMultipleChangesEv@Base 2.48.3-1
 _ZN7YWidget20startMultipleChangesEv@Base 2.48.3-1
 _ZN7stdutil4formEPKcz@Base 2.48.3-1
 _ZN7strutil5splitESsRSt6vectorISsSaISsEESsb@Base 2.48.3-1
 _ZN8NCDialog10DeactivateEv@Base 2.48.3-1
 _ZN8NCDialog10_init_sizeEv@Base 2.48.3-1
 _ZN8NCDialog10getVisibleEv@Base 2.48.3-1
 _ZN8NCDialog10grabActiveEP8NCWidget@Base 2.48.3-1
 _ZN8NCDialog10grabNotifyEP8NCWidget@Base 2.48.3-1
 _ZN8NCDialog10initDialogEv@Base 2.48.3-1
 _ZN8NCDialog10setEnabledEb@Base 2.48.3-1
 _ZN8NCDialog10showDialogEv@Base 2.48.3-1
 _ZN8NCDialog11closeDialogEv@Base 2.48.3-1
 _ZN8NCDialog11resizeEventEv@Base 2.48.3-1
 _ZN8NCDialog12ActivateNextEv@Base 2.48.3-1
 _ZN8NCDialog12ActivatePrevEv@Base 2.48.3-1
 _ZN8NCDialog12getInvisibleEv@Base 2.48.3-1
 _ZN8NCDialog12openInternalEv@Base 2.48.3-1
 _ZN8NCDialog12processInputEi@Base 2.48.3-1
 _ZN8NCDialog12wHandleInputEj@Base 2.48.3-1
 _ZN8NCDialog13ActivateByKeyEi@Base 2.48.3-1
 _ZN8NCDialog13GetNextNormalER8NCWidget@Base 2.48.3-1
 _ZN8NCDialog13GetPrevNormalER8NCWidget@Base 2.48.3-1
 _ZN8NCDialog13getInputEventEj@Base 2.48.3-1
 _ZN8NCDialog13setStatusLineEv@Base 2.48.3-1
 _ZN8NCDialog13wHandleHotkeyEj@Base 2.48.3-1
 _ZN8NCDialog14flushTypeaheadEv@Base 2.48.3-1
 _ZN8NCDialog14getHotkeyEventEj@Base 2.48.3-1
 _ZN8NCDialog14preferredWidthEv@Base 2.48.3-1
 _ZN8NCDialog14showHotkeyHelpEv@Base 2.48.3-1
 _ZN8NCDialog15preferredHeightEv@Base 2.48.3-1
 _ZN8NCDialog17pollEventInternalEv@Base 2.48.3-1
 _ZN8NCDialog19doneMultipleChangesEv@Base 2.48.3-1
 _ZN8NCDialog20describeFunctionKeysEv@Base 2.48.3-1
 _ZN8NCDialog20startMultipleChangesEv@Base 2.48.3-1
 _ZN8NCDialog20waitForEventInternalEi@Base 2.48.3-1
 _ZN8NCDialog5_initEv@Base 2.48.3-1
 _ZN8NCDialog7setSizeEii@Base 2.48.3-1
 _ZN8NCDialog7wCreateERK5wrect@Base 2.48.3-1
 _ZN8NCDialog7wDeleteEv@Base 2.48.3-1
 _ZN8NCDialog7wMoveToERK4wpos@Base 2.48.3-1
 _ZN8NCDialog7wRedrawEv@Base 2.48.3-1
 _ZN8NCDialog7wUpdateEb@Base 2.48.3-1
 _ZN8NCDialog8ActivateEM5tnodeIP8NCWidgetEFPS3_bE@Base 2.48.3-1
 _ZN8NCDialog8ActivateER8NCWidget@Base 2.48.3-1
 _ZN8NCDialog8ActivateEv@Base 2.48.3-1
 _ZN8NCDialog8activateEb@Base 2.48.3-1
 _ZN8NCDialog8activateEv@Base 2.48.3-1
 _ZN8NCDialog8getinputEv@Base 2.48.3-1
 _ZN8NCDialog8wRecodedEv@Base 2.48.3-1
 _ZN8NCDialog9CUR_getchEi@Base 2.48.3-1
 _ZN8NCDialog9GetNormalER8NCWidgetM5tnodeIPS0_EFPS4_bE@Base 2.48.3-1
 _ZN8NCDialog9idleInputEv@Base 2.48.3-1
 _ZN8NCDialog9pollInputEv@Base 2.48.3-1
 _ZN8NCDialog9userInputEi@Base 2.48.3-1
 _ZN8NCDialog9wantFocusER8NCWidget@Base 2.48.3-1
 _ZN8NCDialogC1E11YDialogType16YDialogColorMode@Base 2.48.3-1
 _ZN8NCDialogC1E11YDialogType4wposb@Base 2.48.3-1
 _ZN8NCDialogC2E11YDialogType16YDialogColorMode@Base 2.48.3-1
 _ZN8NCDialogC2E11YDialogType4wposb@Base 2.48.3-1
 _ZN8NCDialogD0Ev@Base 2.48.3-1
 _ZN8NCDialogD1Ev@Base 2.48.3-1
 _ZN8NCDialogD2Ev@Base 2.48.3-1
 _ZN8NCSquash10setEnabledEb@Base 2.48.3-1
 _ZN8NCSquash14preferredWidthEv@Base 2.48.3-1
 _ZN8NCSquash15preferredHeightEv@Base 2.48.3-1
 _ZN8NCSquash7setSizeEii@Base 2.48.3-1
 _ZN8NCSquashC1EP7YWidgetbb@Base 2.48.3-1
 _ZN8NCSquashC2EP7YWidgetbb@Base 2.48.3-1
 _ZN8NCSquashD0Ev@Base 2.48.3-1
 _ZN8NCSquashD1Ev@Base 2.48.3-1
 _ZN8NCSquashD2Ev@Base 2.48.3-1
 _ZN8NCWidget10grabNotifyEPS_@Base 2.48.3-1
 _ZN8NCWidget10setEnabledEb@Base 2.48.3-1
 _ZN8NCWidget11PreReparentEv@Base 2.48.3-1
 _ZN8NCWidget12PostReparentEv@Base 2.48.3-1
 _ZN8NCWidget12wHandleInputEj@Base 2.48.3-1
 _ZN8NCWidget12wMoveChildToERS_RK4wpos@Base 2.48.3-1
 _ZN8NCWidget13PreDisconnectEv@Base 2.48.3-1
 _ZN8NCWidget13wHandleHotkeyEj@Base 2.48.3-1
 _ZN8NCWidget14PostDisconnectEv@Base 2.48.3-1
 _ZN8NCWidget6RedrawEb@Base 2.48.3-1
 _ZN8NCWidget6UpdateEv@Base 2.48.3-1
 _ZN8NCWidget7RecodedEv@Base 2.48.3-1
 _ZN8NCWidget7wCreateERK5wrect@Base 2.48.3-1
 _ZN8NCWidget7wDeleteEv@Base 2.48.3-1
 _ZN8NCWidget7wMoveToERK4wpos@Base 2.48.3-1
 _ZN8NCWidget7wRedrawEv@Base 2.48.3-1
 _ZN8NCWidget7wUpdateEb@Base 2.48.3-1
 _ZN8NCWidget8SetStateEN2NC6WStateEb@Base 2.48.3-1
 _ZN8NCWidget8wRecodedEv@Base 2.48.3-1
 _ZN8NCWidget9HasHotkeyEi@Base 2.48.3-1
 _ZN8NCWidget9ParentWinEv@Base 2.48.3-1
 _ZN8NCWidget9grabFocusEv@Base 2.48.3-1
 _ZN8NCWidget9wRelocateERK5wrect@Base 2.48.3-1
 _ZN8NCWidget9wantFocusERS_@Base 2.48.3-1
 _ZN8NCWidgetC1EP7YWidget@Base 2.48.3-1
 _ZN8NCWidgetC1EPS_@Base 2.48.3-1
 _ZN8NCWidgetC2EP7YWidget@Base 2.48.3-1
 _ZN8NCWidgetC2EPS_@Base 2.48.3-1
 _ZN8NCWidgetD0Ev@Base 2.48.3-1
 _ZN8NCWidgetD1Ev@Base 2.48.3-1
 _ZN8NCWidgetD2Ev@Base 2.48.3-1
 _ZN8NCstring12termEncodingE@Base 2.48.3-1
 _ZN8NCstring13RecodeToWcharERKSsS1_PSbIwSt11char_traitsIwESaIwEE@Base 2.48.3-1
 _ZN8NCstring15RecodeFromWcharERKSbIwSt11char_traitsIwESaIwEERKSsPSs@Base 2.48.3-1
 _ZN8NCstring19setTerminalEncodingERKSs@Base 2.48.3-1
 _ZN8NCstringC1EPKc@Base 2.48.3-1
 _ZN8NCstringC1ERKS_@Base 2.48.3-1
 _ZN8NCstringC1ERKSbIwSt11char_traitsIwESaIwEE@Base 2.48.3-1
 _ZN8NCstringC1ERKSs@Base 2.48.3-1
 _ZN8NCstringC1Ev@Base 2.48.3-1
 _ZN8NCstringC2EPKc@Base 2.48.3-1
 _ZN8NCstringC2ERKS_@Base 2.48.3-1
 _ZN8NCstringC2ERKSbIwSt11char_traitsIwESaIwEE@Base 2.48.3-1
 _ZN8NCstringC2ERKSs@Base 2.48.3-1
 _ZN8NCstringC2Ev@Base 2.48.3-1
 _ZN8NCstringD1Ev@Base 2.48.3-1
 _ZN8NCstringD2Ev@Base 2.48.3-1
 _ZN8NCstringaSERKS_@Base 2.48.3-1
 _ZN8NCstringpLERKS_@Base 2.48.3-1
 _ZN8YDumbTab17setShortcutStringERKSs@Base 2.48.3-1
 _ZN8YDumbTab8setLabelERKSs@Base 2.48.3-1
 _ZN8YLogView17setShortcutStringERKSs@Base 2.48.3-1
 _ZN9NCDumbTab10selectItemEP5YItemb@Base 2.48.3-1
 _ZN9NCDumbTab10setEnabledEb@Base 2.48.3-1
 _ZN9NCDumbTab11redrawChildEP7YWidget@Base 2.48.3-1
 _ZN9NCDumbTab12wHandleInputEj@Base 2.48.3-1
 _ZN9NCDumbTab13setCurrentTabEj@Base 2.48.3-1
 _ZN9NCDumbTab14preferredWidthEv@Base 2.48.3-1
 _ZN9NCDumbTab15createMenuEventEj@Base 2.48.3-1
 _ZN9NCDumbTab15preferredHeightEv@Base 2.48.3-1
 _ZN9NCDumbTab15shortcutChangedEv@Base 2.48.3-1
 _ZN9NCDumbTab16setKeyboardFocusEv@Base 2.48.3-1
 _ZN9NCDumbTab7addItemEP5YItem@Base 2.48.3-1
 _ZN9NCDumbTab7setSizeEii@Base 2.48.3-1
 _ZN9NCDumbTab7wRedrawEv@Base 2.48.3-1
 _ZN9NCDumbTab9HasHotkeyEi@Base 2.48.3-1
 _ZN9NCDumbTabC1EP7YWidget@Base 2.48.3-1
 _ZN9NCDumbTabC2EP7YWidget@Base 2.48.3-1
 _ZN9NCDumbTabD0Ev@Base 2.48.3-1
 _ZN9NCDumbTabD1Ev@Base 2.48.3-1
 _ZN9NCDumbTabD2Ev@Base 2.48.3-1
 _ZN9NCLogView10setEnabledEb@Base 2.48.3-1
 _ZN9NCLogView12wHandleInputEj@Base 2.48.3-1
 _ZN9NCLogView14displayLogTextERKSs@Base 2.48.3-1
 _ZN9NCLogView14preferredWidthEv@Base 2.48.3-1
 _ZN9NCLogView15preferredHeightEv@Base 2.48.3-1
 _ZN9NCLogView16setKeyboardFocusEv@Base 2.48.3-1
 _ZN9NCLogView7DrawPadEv@Base 2.48.3-1
 _ZN9NCLogView7setSizeEii@Base 2.48.3-1
 _ZN9NCLogView7wRedrawEv@Base 2.48.3-1
 _ZN9NCLogView8setLabelERKSs@Base 2.48.3-1
 _ZN9NCLogView8wRecodedEv@Base 2.48.3-1
 _ZN9NCLogView9CreatePadEv@Base 2.48.3-1
 _ZN9NCLogViewC1EP7YWidgetRKSsii@Base 2.48.3-1
 _ZN9NCLogViewC2EP7YWidgetRKSsii@Base 2.48.3-1
 _ZN9NCLogViewD0Ev@Base 2.48.3-1
 _ZN9NCLogViewD1Ev@Base 2.48.3-1
 _ZN9NCLogViewD2Ev@Base 2.48.3-1
 _ZN9NCSpacing10setEnabledEb@Base 2.48.3-1
 _ZN9NCSpacing14preferredWidthEv@Base 2.48.3-1
 _ZN9NCSpacing15preferredHeightEv@Base 2.48.3-1
 _ZN9NCSpacing7setSizeEii@Base 2.48.3-1
 _ZN9NCSpacingC1EP7YWidget12YUIDimensionbd@Base 2.48.3-1
 _ZN9NCSpacingC2EP7YWidget12YUIDimensionbd@Base 2.48.3-1
 _ZN9NCSpacingD0Ev@Base 2.48.3-1
 _ZN9NCSpacingD1Ev@Base 2.48.3-1
 _ZN9NCSpacingD2Ev@Base 2.48.3-1
 _ZN9NCTextPad11assertWidthEj@Base 2.48.3-1
 _ZN9NCTextPad11handleInputEj@Base 2.48.3-1
 _ZN9NCTextPad12assertHeightEj@Base 2.48.3-1
 _ZN9NCTextPad17setInputMaxLengthEi@Base 2.48.3-1
 _ZN9NCTextPad6cursorEb@Base 2.48.3-1
 _ZN9NCTextPad6insertEj@Base 2.48.3-1
 _ZN9NCTextPad6resizeE4wsze@Base 2.48.3-1
 _ZN9NCTextPad6setposERK4wpos@Base 2.48.3-1
 _ZN9NCTextPad6setposEv@Base 2.48.3-1
 _ZN9NCTextPad7setTextERK6NCtext@Base 2.48.3-1
 _ZN9NCTextPad8openLineEv@Base 2.48.3-1
 _ZN9NCTextPad9CUR_delchEb@Base 2.48.3-1
 _ZN9NCTextPad9assertSzeE4wsze@Base 2.48.3-1
 _ZN9NCTextPadC1EiiRK8NCWidget@Base 2.48.3-1
 _ZN9NCTextPadC2EiiRK8NCWidget@Base 2.48.3-1
 _ZN9NCTextPadD0Ev@Base 2.48.3-1
 _ZN9NCTextPadD1Ev@Base 2.48.3-1
 _ZN9NCTextPadD2Ev@Base 2.48.3-1
 _ZN9NCTreePad10ModifyLineEj@Base 2.48.3-1
 _ZN9NCTreePad10assertLineEj@Base 2.48.3-1
 _ZN9NCTreePad11SetHeadlineERKSt6vectorI8NCstringSaIS1_EE@Base 2.48.3-1
 _ZN9NCTreePad11handleInputEj@Base 2.48.3-1
 _ZN9NCTreePad12UpdateFormatEv@Base 2.48.3-1
 _ZN9NCTreePad16updateScrollHintEv@Base 2.48.3-1
 _ZN9NCTreePad6setposERK4wpos@Base 2.48.3-1
 _ZN9NCTreePad7AddLineEjP11NCTableLine@Base 2.48.3-1
 _ZN9NCTreePad7DelLineEj@Base 2.48.3-1
 _ZN9NCTreePad7DestwinEP13NCursesWindow@Base 2.48.3-1
 _ZN9NCTreePad8DoRedrawEv@Base 2.48.3-1
 _ZN9NCTreePad8SendHeadEv@Base 2.48.3-1
 _ZN9NCTreePad8SetLinesERSt6vectorIP11NCTableLineSaIS2_EE@Base 2.48.3-1
 _ZN9NCTreePad8SetLinesEj@Base 2.48.3-1
 _ZN9NCTreePad8ShowItemEPK11NCTableLine@Base 2.48.3-1
 _ZN9NCTreePad8dirtyPadEv@Base 2.48.3-1
 _ZN9NCTreePad8wRecodedEv@Base 2.48.3-1
 _ZN9NCTreePadC1EiiRK8NCWidget@Base 2.48.3-1
 _ZN9NCTreePadC2EiiRK8NCWidget@Base 2.48.3-1
 _ZN9NCTreePadD0Ev@Base 2.48.3-1
 _ZN9NCTreePadD1Ev@Base 2.48.3-1
 _ZN9NCTreePadD2Ev@Base 2.48.3-1
 _ZN9NCattrsetD0Ev@Base 2.48.3-1
 _ZN9NCattrsetD1Ev@Base 2.48.3-1
 _ZN9NCattrsetD2Ev@Base 2.48.3-1
 _ZN9YCheckBox17setShortcutStringERKSs@Base 2.48.3-1
 _ZN9YCheckBox17userInputPropertyEv@Base 2.48.3-1
 _ZN9YComboBox17userInputPropertyEv@Base 2.48.3-1
 _ZN9YIntField17setShortcutStringERKSs@Base 2.48.3-1
 _ZN9YIntField17userInputPropertyEv@Base 2.48.3-1
 _ZN9YMenuItemD0Ev@Base 2.48.3-1
 _ZN9YMenuItemD1Ev@Base 2.48.3-1
 _ZN9YMenuItemD2Ev@Base 2.48.3-1
 _ZN9YTreeItem11childrenEndEv@Base 2.48.3-1
 _ZN9YTreeItem13childrenBeginEv@Base 2.48.3-1
 _ZNK10NCCheckBox8locationEv@Base 2.48.3-1
 _ZNK10NCComboBox14getCurrentItemEv@Base 2.48.3-1
 _ZNK10NCComboBox8locationEv@Base 2.48.3-1
 _ZNK10NCComboBox8validKeyEj@Base 2.48.3-1
 _ZNK10NCIntField8locationEv@Base 2.48.3-1
 _ZNK10NCRichText8locationEv@Base 2.48.3-1
 _ZNK10NCTableCol4SizeEv@Base 2.48.3-1
 _ZNK10NCTableCol6DrawAtER13NCursesWindow5wrectR12NCTableStyleN11NCTableLine5STATEEj@Base 2.48.3-1
 _ZNK10NCTableCol7setBkgdER13NCursesWindowR12NCTableStyleN11NCTableLine5STATEENS_5STYLEE@Base 2.48.3-1
 _ZNK10NCTablePad6CurPosEv@Base 2.48.3-1
 _ZNK10NCTablePad7GetLineEj@Base 2.48.3-1
 _ZNK10NCTableTag6DrawAtER13NCursesWindow5wrectR12NCTableStyleN11NCTableLine5STATEEj@Base 2.48.3-1
 _ZNK10NCTreeLine6DrawAtER13NCursesWindow5wrectR12NCTableStyleb@Base 2.48.3-1
 _ZNK10NCTreeLine7HotspotERj@Base 2.48.3-1
 _ZNK10NCTreeLine9isVisibleEv@Base 2.48.3-1
 _ZNK10YButtonBox11widgetClassEv@Base 2.48.3-1
 _ZNK10YDateField11widgetClassEv@Base 2.48.3-1
 _ZNK10YMenuEvent4itemEv@Base 2.48.3-1
 _ZNK10YTimeField11widgetClassEv@Base 2.48.3-1
 _ZNK11NCAlignment8locationEv@Base 2.48.3-1
 _ZNK11NCDateField8locationEv@Base 2.48.3-1
 _ZNK11NCLayoutBox8locationEv@Base 2.48.3-1
 _ZNK11NCPadWidget5myPadEv@Base 2.48.3-1
 _ZNK11NCPadWidget8locationEv@Base 2.48.3-1
 _ZNK11NCTableHead6DrawAtER13NCursesWindow5wrectR12NCTableStyleb@Base 2.48.3-1
 _ZNK11NCTableLine10isEnabeledEv@Base 2.48.3-1
 _ZNK11NCTableLine6DrawAtER13NCursesWindow5wrectR12NCTableStyleb@Base 2.48.3-1
 _ZNK11NCTableLine7HotspotERj@Base 2.48.3-1
 _ZNK11NCTableLine9DrawItemsER13NCursesWindow5wrectR12NCTableStyleb@Base 2.48.3-1
 _ZNK11NCTableLine9isVisibleEv@Base 2.48.3-1
 _ZNK11NCTimeField8locationEv@Base 2.48.3-1
 _ZNK11YInputField14shortcutStringEv@Base 2.48.3-1
 _ZNK11YMenuButton11widgetClassEv@Base 2.48.3-1
 _ZNK11YPushButton11widgetClassEv@Base 2.48.3-1
 _ZNK11YPushButton14shortcutStringEv@Base 2.48.3-1
 _ZNK12NCInputField8locationEv@Base 2.48.3-1
 _ZNK12NCInputField8validKeyEj@Base 2.48.3-1
 _ZNK12NCMenuButton8locationEv@Base 2.48.3-1
 _ZNK12NCPopupTable14getCurrentItemEv@Base 2.48.3-1
 _ZNK12NCPopupTable21getCurrentItemPointerEv@Base 2.48.3-1
 _ZNK12NCPushButton8locationEv@Base 2.48.3-1
 _ZNK12NCTableStyle11highlightBGEN11NCTableLine5STATEEN10NCTableCol5STYLEES3_@Base 2.48.3-1
 _ZNK12NCTableStyle5getBGEN11NCTableLine5STATEEN10NCTableCol5STYLEE@Base 2.48.3-1
 _ZNK12NCursesError8locationEv@Base 2.48.3-1
 _ZNK12YProgressBar11widgetClassEv@Base 2.48.3-1
 _ZNK12YRadioButton11widgetClassEv@Base 2.48.3-1
 _ZNK12YRadioButton14shortcutStringEv@Base 2.48.3-1
 _ZNK12YUIException4whatEv@Base 2.48.3-1
 _ZNK13NCProgressBar8locationEv@Base 2.48.3-1
 _ZNK13NCRadioButton8locationEv@Base 2.48.3-1
 _ZNK13NCursesWindow11err_handlerEPKc@Base 2.48.3-1
 _ZNK13NCursesWindow8getcolorEi@Base 2.48.3-1
 _ZNK13NCursesWindow8getcolorEv@Base 2.48.3-1
 _ZNK13NCursesWindow9has_mouseEv@Base 2.48.3-1
 _ZNK13YReplacePoint11widgetClassEv@Base 2.48.3-1
 _ZNK13YSelectionBox11widgetClassEv@Base 2.48.3-1
 _ZNK14NCReplacePoint8locationEv@Base 2.48.3-1
 _ZNK14NCSelectionBox5myPadEv@Base 2.48.3-1
 _ZNK14NCSelectionBox8locationEv@Base 2.48.3-1
 _ZNK14YBusyIndicator11widgetClassEv@Base 2.48.3-1
 _ZNK14YCheckBoxFrame11widgetClassEv@Base 2.48.3-1
 _ZNK14YCheckBoxFrame14shortcutStringEv@Base 2.48.3-1
 _ZNK14YMultiLineEdit11widgetClassEv@Base 2.48.3-1
 _ZNK14YMultiLineEdit14shortcutStringEv@Base 2.48.3-1
 _ZNK15NCBusyIndicator8locationEv@Base 2.48.3-1
 _ZNK15NCCheckBoxFrame8locationEv@Base 2.48.3-1
 _ZNK15NCInputTextBase10bufferFullEv@Base 2.48.3-1
 _ZNK15NCInputTextBase8locationEv@Base 2.48.3-1
 _ZNK15NCInputTextBase9maxCursorEv@Base 2.48.3-1
 _ZNK15NCMultiLineEdit5myPadEv@Base 2.48.3-1
 _ZNK15NCMultiLineEdit8locationEv@Base 2.48.3-1
 _ZNK16NCursesException9classnameEv@Base 2.48.3-1
 _ZNK16YSelectionWidget14shortcutStringEv@Base 2.48.3-1
 _ZNK17YRadioButtonGroup11widgetClassEv@Base 2.48.3-1
 _ZNK17YSimpleInputField14shortcutStringEv@Base 2.48.3-1
 _ZNK18NCRadioButtonGroup8locationEv@Base 2.48.3-1
 _ZNK18YMultiSelectionBox11widgetClassEv@Base 2.48.3-1
 _ZNK19NCMultiSelectionBox5myPadEv@Base 2.48.3-1
 _ZNK19NCMultiSelectionBox7tagCellEi@Base 2.48.3-1
 _ZNK19NCMultiSelectionBox8locationEv@Base 2.48.3-1
 _ZNK21NCursesPanelException9classnameEv@Base 2.48.3-1
 _ZNK3YUI13eventsBlockedEv@Base 2.48.3-1
 _ZNK5NCPad6CurPosEv@Base 2.48.3-1
 _ZNK5YItem11childrenEndEv@Base 2.48.3-1
 _ZNK5YItem11hasChildrenEv@Base 2.48.3-1
 _ZNK5YItem13childrenBeginEv@Base 2.48.3-1
 _ZNK5YItem6parentEv@Base 2.48.3-1
 _ZNK5YTree11widgetClassEv@Base 2.48.3-1
 _ZNK5boost16bad_lexical_cast4whatEv@Base 2.48.3-1
 _ZNK5boost16exception_detail10clone_implINS0_19error_info_injectorINS_16bad_lexical_castEEEE5cloneEv@Base 2.48.3-1
 _ZNK5boost16exception_detail10clone_implINS0_19error_info_injectorINS_16bad_lexical_castEEEE7rethrowEv@Base 2.48.3-1
 _ZNK5boost16exception_detail10clone_implINS0_19error_info_injectorINS_9gregorian11bad_weekdayEEEE5cloneEv@Base 2.48.3-1
 _ZNK5boost16exception_detail10clone_implINS0_19error_info_injectorINS_9gregorian11bad_weekdayEEEE7rethrowEv@Base 2.48.3-1
 _ZNK5boost16exception_detail10clone_implINS0_19error_info_injectorINS_9gregorian15bad_day_of_yearEEEE5cloneEv@Base 2.48.3-1
 _ZNK5boost16exception_detail10clone_implINS0_19error_info_injectorINS_9gregorian15bad_day_of_yearEEEE7rethrowEv@Base 2.48.3-1
 _ZNK5boost16exception_detail10clone_implINS0_19error_info_injectorINS_9gregorian16bad_day_of_monthEEEE5cloneEv@Base 2.48.3-1
 _ZNK5boost16exception_detail10clone_implINS0_19error_info_injectorINS_9gregorian16bad_day_of_monthEEEE7rethrowEv@Base 2.48.3-1
 _ZNK5boost16exception_detail10clone_implINS0_19error_info_injectorINS_9gregorian8bad_yearEEEE5cloneEv@Base 2.48.3-1
 _ZNK5boost16exception_detail10clone_implINS0_19error_info_injectorINS_9gregorian8bad_yearEEEE7rethrowEv@Base 2.48.3-1
 _ZNK5boost16exception_detail10clone_implINS0_19error_info_injectorINS_9gregorian9bad_monthEEEE5cloneEv@Base 2.48.3-1
 _ZNK5boost16exception_detail10clone_implINS0_19error_info_injectorINS_9gregorian9bad_monthEEEE7rethrowEv@Base 2.48.3-1
 _ZNK5boost9date_time17string_parse_treeIwE5matchERSt19istreambuf_iteratorIwSt11char_traitsIwEES7_RNS0_18parse_match_resultIwEERj@Base 2.48.3-1
 _ZNK5boost9date_time18format_date_parserINS_9gregorian4dateEwE10parse_dateERSt19istreambuf_iteratorIwSt11char_traitsIwEES9_SbIwS7_SaIwEERKNS0_21special_values_parserIS3_wEE@Base 2.48.3-1
 _ZNK6NCTree14getCurrentItemEv@Base 2.48.3-1
 _ZNK6NCTree5myPadEv@Base 2.48.3-1
 _ZNK6NCTree8locationEv@Base 2.48.3-1
 _ZNK6NCtext5LinesEv@Base 2.48.3-1
 _ZNK6NCtext7ColumnsEv@Base 2.48.3-1
 _ZNK6NCtextixEm@Base 2.48.3-1
 _ZNK6YEmpty11widgetClassEv@Base 2.48.3-1
 _ZNK6YEvent4itemEv@Base 2.48.3-1
 _ZNK6YEvent6widgetEv@Base 2.48.3-1
 _ZNK6YFrame11widgetClassEv@Base 2.48.3-1
 _ZNK6YImage11widgetClassEv@Base 2.48.3-1
 _ZNK6YTable11widgetClassEv@Base 2.48.3-1
 _ZNK7NCEmpty8locationEv@Base 2.48.3-1
 _ZNK7NCFrame8locationEv@Base 2.48.3-1
 _ZNK7NCImage8locationEv@Base 2.48.3-1
 _ZNK7NCLabel8locationEv@Base 2.48.3-1
 _ZNK7NCTable5myPadEv@Base 2.48.3-1
 _ZNK7NCTable8locationEv@Base 2.48.3-1
 _ZNK7NClabel6drawAtER13NCursesWindowmmRK5wrectN2NC6ADJUSTEb@Base 2.48.3-1
 _ZNK7YDialog11widgetClassEv@Base 2.48.3-1
 _ZNK7YWidget14shortcutStringEv@Base 2.48.3-1
 _ZNK8NCDialog6wStyleEv@Base 2.48.3-1
 _ZNK8NCDialog8locationEv@Base 2.48.3-1
 _ZNK8NCSquash8locationEv@Base 2.48.3-1
 _ZNK8NCWidget17HasFunctionHotkeyEi@Base 2.48.3-1
 _ZNK8NCWidget6DumpOnERSoSs@Base 2.48.3-1
 _ZNK8NCWidget6wStyleEv@Base 2.48.3-1
 _ZNK8NCWidget8locationEv@Base 2.48.3-1
 _ZNK8NCWidget9ScreenPosEv@Base 2.48.3-1
 _ZNK8NCstring3StrEv@Base 2.48.3-1
 _ZNK8NCstring9getHotkeyEv@Base 2.48.3-1
 _ZNK8YDumbTab11widgetClassEv@Base 2.48.3-1
 _ZNK8YDumbTab14shortcutStringEv@Base 2.48.3-1
 _ZNK8YLogView11widgetClassEv@Base 2.48.3-1
 _ZNK8YLogView14shortcutStringEv@Base 2.48.3-1
 _ZNK9NCDumbTab8locationEv@Base 2.48.3-1
 _ZNK9NCLogView8locationEv@Base 2.48.3-1
 _ZNK9NCSpacing8locationEv@Base 2.48.3-1
 _ZNK9NCTextPad6CurPosEv@Base 2.48.3-1
 _ZNK9NCTextPad7getTextEv@Base 2.48.3-1
 _ZNK9NCTreePad14GetCurrentLineEv@Base 2.48.3-1
 _ZNK9NCTreePad6CurPosEv@Base 2.48.3-1
 _ZNK9NCTreePad7GetLineEj@Base 2.48.3-1
 _ZNK9YCheckBox11widgetClassEv@Base 2.48.3-1
 _ZNK9YCheckBox14shortcutStringEv@Base 2.48.3-1
 _ZNK9YComboBox11widgetClassEv@Base 2.48.3-1
 _ZNK9YIntField11widgetClassEv@Base 2.48.3-1
 _ZNK9YIntField14shortcutStringEv@Base 2.48.3-1
 _ZNK9YMenuItem6parentEv@Base 2.48.3-1
 _ZNK9YRichText11widgetClassEv@Base 2.48.3-1
 _ZNK9YTreeItem11childrenEndEv@Base 2.48.3-1
 _ZNK9YTreeItem11hasChildrenEv@Base 2.48.3-1
 _ZNK9YTreeItem13childrenBeginEv@Base 2.48.3-1
 _ZNSbIwSt11char_traitsIwESaIwEE12_S_constructIN5boost18transform_iteratorINS4_9algorithm6detail9to_lowerFIwEEN9__gnu_cxx17__normal_iteratorIPKwS2_EENS4_11use_defaultESF_EEEEPwT_SI_RKS1_St18input_iterator_tag@Base 2.48.3-1
 _ZNSbIwSt11char_traitsIwESaIwEE12_S_constructIPwEES4_T_S5_RKS1_St20forward_iterator_tag@Base 2.48.3-1
 _ZNSbIwSt11char_traitsIwESaIwEEC1ISt15_Deque_iteratorIwRwPwEEET_S8_RKS1_@Base 2.48.3-1
 _ZNSbIwSt11char_traitsIwESaIwEEC2ISt15_Deque_iteratorIwRwPwEEET_S8_RKS1_@Base 2.48.3-1
 _ZNSt10_List_baseI8NCstringSaIS0_EE8_M_clearEv@Base 2.48.3-1
 _ZNSt10_List_baseISsSaISsEE8_M_clearEv@Base 2.48.3-1
 _ZNSt11_Deque_baseIiSaIiEE17_M_initialize_mapEm@Base 2.48.3-1
 _ZNSt11_Deque_baseIiSaIiEED1Ev@Base 2.48.3-1
 _ZNSt11_Deque_baseIiSaIiEED2Ev@Base 2.48.3-1
 _ZNSt11_Deque_baseIwSaIwEE17_M_initialize_mapEm@Base 2.48.3-1
 _ZNSt11_Deque_baseIwSaIwEED1Ev@Base 2.48.3-1
 _ZNSt11_Deque_baseIwSaIwEED2Ev@Base 2.48.3-1
 _ZNSt11logic_errorC1ERKS_@Base 2.48.3-1
 _ZNSt11logic_errorC2ERKS_@Base 2.48.3-1
 _ZNSt15basic_stringbufIcSt11char_traitsIcESaIcEED0Ev@Base 2.48.3-1
 _ZNSt15basic_stringbufIcSt11char_traitsIcESaIcEED1Ev@Base 2.48.3-1
 _ZNSt15basic_stringbufIcSt11char_traitsIcESaIcEED2Ev@Base 2.48.3-1
 _ZNSt15basic_stringbufIwSt11char_traitsIwESaIwEED0Ev@Base 2.48.3-1
 _ZNSt15basic_stringbufIwSt11char_traitsIwESaIwEED1Ev@Base 2.48.3-1
 _ZNSt15basic_stringbufIwSt11char_traitsIwESaIwEED2Ev@Base 2.48.3-1
 _ZNSt3mapISbIwSt11char_traitsIwESaIwEES3_St4lessIS3_ESaISt4pairIKS3_S3_EEED1Ev@Base 2.48.3-1
 _ZNSt3mapISbIwSt11char_traitsIwESaIwEES3_St4lessIS3_ESaISt4pairIKS3_S3_EEED2Ev@Base 2.48.3-1
 _ZNSt3mapISbIwSt11char_traitsIwESaIwEES3_St4lessIS3_ESaISt4pairIKS3_S3_EEEixEOS3_@Base 2.48.3-1
 _ZNSt3setIP8NCDialogSt4lessIS1_ESaIS1_EED1Ev@Base 2.48.3-1
 _ZNSt3setIP8NCDialogSt4lessIS1_ESaIS1_EED2Ev@Base 2.48.3-1
 _ZNSt4listI8NCstringSaIS0_EEaSERKS2_@Base 2.48.3-1
 _ZNSt4listISsSaISsEE4sortEv@Base 2.48.3-1
 _ZNSt4listISsSaISsEE5mergeEOS1_@Base 2.48.3-1
 _ZNSt5dequeIiSaIiEE16_M_push_back_auxIIRKiEEEvDpOT_@Base 2.48.3-1
 _ZNSt5dequeIiSaIiEE16_M_push_back_auxIJRKiEEEvDpOT_@Base 2.48.3-1
 _ZNSt5dequeIwSaIwEE13_M_insert_auxIPKcEEvSt15_Deque_iteratorIwRwPwET_S9_m@Base 2.48.3-1
 _ZNSt5dequeIwSaIwEE13_M_insert_auxIPKwEEvSt15_Deque_iteratorIwRwPwET_S9_m@Base 2.48.3-1
 _ZNSt5dequeIwSaIwEE17_M_reallocate_mapEmb@Base 2.48.3-1
 _ZNSt5dequeIwSaIwEE19_M_range_insert_auxIPKwEEvSt15_Deque_iteratorIwRwPwET_S9_St20forward_iterator_tag@Base 2.48.3-1
 _ZNSt5dequeIwSaIwEE23_M_new_elements_at_backEm@Base 2.48.3-1
 _ZNSt5dequeIwSaIwEE24_M_new_elements_at_frontEm@Base 2.48.3-1
 _ZNSt6localeC1IN5boost9date_time16date_input_facetINS1_9gregorian4dateEwSt19istreambuf_iteratorIwSt11char_traitsIwEEEEEERKS_PT_@Base 2.48.3-1
 _ZNSt6localeC2IN5boost9date_time16date_input_facetINS1_9gregorian4dateEwSt19istreambuf_iteratorIwSt11char_traitsIwEEEEEERKS_PT_@Base 2.48.3-1
 _ZNSt6vectorI8NCstringSaIS0_EE14_M_fill_assignEmRKS0_@Base 2.48.3-1
 _ZNSt6vectorI9NCattrsetSaIS0_EE12emplace_backIIS0_EEEvDpOT_@Base 2.48.3-1
 _ZNSt6vectorI9NCattrsetSaIS0_EE12emplace_backIJS0_EEEvDpOT_@Base 2.48.3-1
 _ZNSt6vectorI9NCattrsetSaIS0_EE19_M_emplace_back_auxIIS0_EEEvDpOT_@Base 2.48.3-1
 _ZNSt6vectorI9NCattrsetSaIS0_EE19_M_emplace_back_auxIJS0_EEEvDpOT_@Base 2.48.3-1
 _ZNSt6vectorI9NCattrsetSaIS0_EED1Ev@Base 2.48.3-1
 _ZNSt6vectorI9NCattrsetSaIS0_EED2Ev@Base 2.48.3-1
 _ZNSt6vectorIN10NCRichText6AnchorESaIS1_EE19_M_emplace_back_auxIIRKS1_EEEvDpOT_@Base 2.48.3-1
 _ZNSt6vectorIN10NCRichText6AnchorESaIS1_EE19_M_emplace_back_auxIJRKS1_EEEvDpOT_@Base 2.48.3-1
 _ZNSt6vectorIN10NCRichText6AnchorESaIS1_EED1Ev@Base 2.48.3-1
 _ZNSt6vectorIN10NCRichText6AnchorESaIS1_EED2Ev@Base 2.48.3-1
 _ZNSt6vectorIN10NCStyleDef12queryCharEntESaIS1_EE12emplace_backIIS1_EEEvDpOT_@Base 2.48.3-1
 _ZNSt6vectorIN10NCStyleDef12queryCharEntESaIS1_EE12emplace_backIJS1_EEEvDpOT_@Base 2.48.3-1
 _ZNSt6vectorIN10NCStyleDef12queryCharEntESaIS1_EE19_M_emplace_back_auxIIS1_EEEvDpOT_@Base 2.48.3-1
 _ZNSt6vectorIN10NCStyleDef12queryCharEntESaIS1_EE19_M_emplace_back_auxIJS1_EEEvDpOT_@Base 2.48.3-1
 _ZNSt6vectorIN10NCStyleDef12queryCharEntESaIS1_EED1Ev@Base 2.48.3-1
 _ZNSt6vectorIN10NCStyleDef12queryCharEntESaIS1_EED2Ev@Base 2.48.3-1
 _ZNSt6vectorIN10NCStyleDef4AsetESaIS1_EE12emplace_backIIS1_EEEvDpOT_@Base 2.48.3-1
 _ZNSt6vectorIN10NCStyleDef4AsetESaIS1_EE12emplace_backIJS1_EEEvDpOT_@Base 2.48.3-1
 _ZNSt6vectorIN10NCStyleDef4AsetESaIS1_EE19_M_emplace_back_auxIIS1_EEEvDpOT_@Base 2.48.3-1
 _ZNSt6vectorIN10NCStyleDef4AsetESaIS1_EE19_M_emplace_back_auxIJS1_EEEvDpOT_@Base 2.48.3-1
 _ZNSt6vectorIN10NCStyleDef4AsetESaIS1_EED1Ev@Base 2.48.3-1
 _ZNSt6vectorIN10NCStyleDef4AsetESaIS1_EED2Ev@Base 2.48.3-1
 _ZNSt6vectorIN2NC6ADJUSTESaIS1_EE14_M_fill_insertEN9__gnu_cxx17__normal_iteratorIPS1_S3_EEmRKS1_@Base 2.48.3-1
 _ZNSt6vectorIP10NCTableColSaIS1_EE14_M_fill_insertEN9__gnu_cxx17__normal_iteratorIPS1_S3_EEmRKS1_@Base 2.48.3-1
 _ZNSt6vectorIP11NCTableLineSaIS1_EE14_M_fill_insertEN9__gnu_cxx17__normal_iteratorIPS1_S3_EEmRKS1_@Base 2.48.3-1
 _ZNSt6vectorIP11NCTableLineSaIS1_EE19_M_emplace_back_auxIIRKS1_EEEvDpOT_@Base 2.48.3-1
 _ZNSt6vectorIP11NCTableLineSaIS1_EE19_M_emplace_back_auxIJRKS1_EEEvDpOT_@Base 2.48.3-1
 _ZNSt6vectorIP11NCTableLineSaIS1_EEaSERKS3_@Base 2.48.3-1
 _ZNSt6vectorIP5YItemSaIS1_EE19_M_emplace_back_auxIIS1_EEEvDpOT_@Base 2.48.3-1
 _ZNSt6vectorIP5YItemSaIS1_EE19_M_emplace_back_auxIJS1_EEEvDpOT_@Base 2.48.3-1
 _ZNSt6vectorISbIwSt11char_traitsIwESaIwEESaIS3_EE19_M_emplace_back_auxIIRKS3_EEEvDpOT_@Base 2.48.3-1
 _ZNSt6vectorISbIwSt11char_traitsIwESaIwEESaIS3_EE19_M_emplace_back_auxIIS3_EEEvDpOT_@Base 2.48.3-1
 _ZNSt6vectorISbIwSt11char_traitsIwESaIwEESaIS3_EE19_M_emplace_back_auxIJRKS3_EEEvDpOT_@Base 2.48.3-1
 _ZNSt6vectorISbIwSt11char_traitsIwESaIwEESaIS3_EE19_M_emplace_back_auxIJS3_EEEvDpOT_@Base 2.48.3-1
 _ZNSt6vectorISbIwSt11char_traitsIwESaIwEESaIS3_EED1Ev@Base 2.48.3-1
 _ZNSt6vectorISbIwSt11char_traitsIwESaIwEESaIS3_EED2Ev@Base 2.48.3-1
 _ZNSt6vectorISsSaISsEE14_M_fill_assignEmRKSs@Base 2.48.3-1
 _ZNSt6vectorISsSaISsEE19_M_emplace_back_auxIIRKSsEEEvDpOT_@Base 2.48.3-1
 _ZNSt6vectorISsSaISsEE19_M_emplace_back_auxIISsEEEvDpOT_@Base 2.48.3-1
 _ZNSt6vectorISsSaISsEE19_M_emplace_back_auxIJRKSsEEEvDpOT_@Base 2.48.3-1
 _ZNSt6vectorISsSaISsEE19_M_emplace_back_auxIJSsEEEvDpOT_@Base 2.48.3-1
 _ZNSt6vectorISsSaISsEE7reserveEm@Base 2.48.3-1
 _ZNSt6vectorISsSaISsEED1Ev@Base 2.48.3-1
 _ZNSt6vectorISsSaISsEED2Ev@Base 2.48.3-1
 _ZNSt6vectorIjSaIjEE14_M_fill_insertEN9__gnu_cxx17__normal_iteratorIPjS1_EEmRKj@Base 2.48.3-1
 _ZNSt6vectorImSaImEEC1EmRKmRKS0_@Base 2.48.3-1
 _ZNSt6vectorImSaImEEC2EmRKmRKS0_@Base 2.48.3-1
 _ZNSt6vectorImSaImEEaSERKS1_@Base 2.48.3-1
 _ZNSt8_Rb_treeIP10YTableItemSt4pairIKS1_P9YMenuItemESt10_Select1stIS6_ESt4lessIS1_ESaIS6_EE29_M_get_insert_hint_unique_posESt23_Rb_tree_const_iteratorIS6_ERS3_@Base 2.48.3-1
 _ZNSt8_Rb_treeIP10YTableItemSt4pairIKS1_P9YMenuItemESt10_Select1stIS6_ESt4lessIS1_ESaIS6_EE8_M_eraseEPSt13_Rb_tree_nodeIS6_E@Base 2.48.3-1
 _ZNSt8_Rb_treeIP8NCDialogS1_St9_IdentityIS1_ESt4lessIS1_ESaIS1_EE8_M_eraseEPSt13_Rb_tree_nodeIS1_E@Base 2.48.3-1
 _ZNSt8_Rb_treeISbIwSt11char_traitsIwESaIwEESt4pairIKS3_S3_ESt10_Select1stIS6_ESt4lessIS3_ESaIS6_EE22_M_emplace_hint_uniqueIIRKSt21piecewise_construct_tSt5tupleIIRS5_EESH_IIEEEEESt17_Rb_tree_iteratorIS6_ESt23_Rb_tree_const_iteratorIS6_EDpOT_@Base 2.48.3-1
 _ZNSt8_Rb_treeISbIwSt11char_traitsIwESaIwEESt4pairIKS3_S3_ESt10_Select1stIS6_ESt4lessIS3_ESaIS6_EE22_M_emplace_hint_uniqueIJRKSt21piecewise_construct_tSt5tupleIJRS5_EESH_IJEEEEESt17_Rb_tree_iteratorIS6_ESt23_Rb_tree_const_iteratorIS6_EDpOT_@Base 2.48.3-1
 _ZNSt8_Rb_treeISbIwSt11char_traitsIwESaIwEESt4pairIKS3_S3_ESt10_Select1stIS6_ESt4lessIS3_ESaIS6_EE24_M_get_insert_unique_posERS5_@Base 2.48.3-1
 _ZNSt8_Rb_treeISbIwSt11char_traitsIwESaIwEESt4pairIKS3_S3_ESt10_Select1stIS6_ESt4lessIS3_ESaIS6_EE29_M_get_insert_hint_unique_posESt23_Rb_tree_const_iteratorIS6_ERS5_@Base 2.48.3-1
 _ZNSt8_Rb_treeISbIwSt11char_traitsIwESaIwEESt4pairIKS3_S3_ESt10_Select1stIS6_ESt4lessIS3_ESaIS6_EE8_M_eraseEPSt13_Rb_tree_nodeIS6_E@Base 2.48.3-1
 _ZNSt8_Rb_treeISsSt4pairIKSsN10NCStyleDef9lookupIdxEESt10_Select1stIS4_ESt4lessISsESaIS4_EE16_M_insert_uniqueIRS4_EES0_ISt17_Rb_tree_iteratorIS4_EbEOT_@Base 2.48.3-1
 _ZNSt8_Rb_treeISsSt4pairIKSsN10NCStyleDef9lookupIdxEESt10_Select1stIS4_ESt4lessISsESaIS4_EE8_M_eraseEPSt13_Rb_tree_nodeIS4_E@Base 2.48.3-1
 _ZNSt8_Rb_treeIiSt4pairIKi8NCstringESt10_Select1stIS3_ESt4lessIiESaIS3_EE22_M_emplace_hint_uniqueIIRKSt21piecewise_construct_tSt5tupleIIOiEESE_IIEEEEESt17_Rb_tree_iteratorIS3_ESt23_Rb_tree_const_iteratorIS3_EDpOT_@Base 2.48.3-1
 _ZNSt8_Rb_treeIiSt4pairIKi8NCstringESt10_Select1stIS3_ESt4lessIiESaIS3_EE22_M_emplace_hint_uniqueIJRKSt21piecewise_construct_tSt5tupleIJOiEESE_IJEEEEESt17_Rb_tree_iteratorIS3_ESt23_Rb_tree_const_iteratorIS3_EDpOT_@Base 2.48.3-1
 _ZNSt8_Rb_treeIiSt4pairIKi8NCstringESt10_Select1stIS3_ESt4lessIiESaIS3_EE7_M_copyEPKSt13_Rb_tree_nodeIS3_EPSB_@Base 2.48.3-1
 _ZNSt8_Rb_treeIiSt4pairIKi8NCstringESt10_Select1stIS3_ESt4lessIiESaIS3_EE8_M_eraseEPSt13_Rb_tree_nodeIS3_E@Base 2.48.3-1
 _ZNSt8_Rb_treeIwSt4pairIKwN5boost9date_time17string_parse_treeIwEEESt10_Select1stIS6_ESt4lessIwESaIS6_EE15_M_insert_equalIS6_EESt17_Rb_tree_iteratorIS6_EOT_@Base 2.48.3-1
 _ZNSt8_Rb_treeIwSt4pairIKwN5boost9date_time17string_parse_treeIwEEESt10_Select1stIS6_ESt4lessIwESaIS6_EE8_M_eraseEPSt13_Rb_tree_nodeIS6_E@Base 2.48.3-1
 _ZSt13__adjust_heapIN9__gnu_cxx17__normal_iteratorIPP11NCTableLineSt6vectorIS3_SaIS3_EEEElS3_N18NCTableSortDefault7CompareEEvT_T0_SC_T1_T2_@Base 2.48.3-1
 _ZSt16__insertion_sortIN9__gnu_cxx17__normal_iteratorIPP11NCTableLineSt6vectorIS3_SaIS3_EEEEN18NCTableSortDefault7CompareEEvT_SB_T0_@Base 2.48.3-1
 _ZSt16__introsort_loopIN9__gnu_cxx17__normal_iteratorIPP11NCTableLineSt6vectorIS3_SaIS3_EEEElN18NCTableSortDefault7CompareEEvT_SB_T0_T1_@Base 2.48.3-1
 _ZStlsRSoRKSbIwSt11char_traitsIwESaIwEE@Base 2.48.3-1
 _ZStplIcSt11char_traitsIcESaIcEESbIT_T0_T1_EPKS3_RKS6_@Base 2.48.3-1
 _ZTI10NCCheckBox@Base 2.48.3-1
 _ZTI10NCComboBox@Base 2.48.3-1
 _ZTI10NCIntField@Base 2.48.3-1
 _ZTI10NCRichText@Base 2.48.3-1
 _ZTI10NCTableCol@Base 2.48.3-1
 _ZTI10NCTablePad@Base 2.48.3-1
 _ZTI10NCTableTag@Base 2.48.3-1
 _ZTI10NCTreeLine@Base 2.48.3-1
 _ZTI10NCursesPad@Base 2.48.3-1
 _ZTI10YMenuEvent@Base 2.48.3-1
 _ZTI10YNCursesUI@Base 2.48.3-1
 _ZTI10YTableCell@Base 2.48.3-1
 _ZTI11NCAlignment@Base 2.48.3-1
 _ZTI11NCButtonBox@Base 2.48.3-1
 _ZTI11NCDateField@Base 2.48.3-1
 _ZTI11NCFileTable@Base 2.48.3-1
 _ZTI11NCLayoutBox@Base 2.48.3-1
 _ZTI11NCPadWidget@Base 2.48.3-1
 _ZTI11NCPopupInfo@Base 2.48.3-1
 _ZTI11NCPopupList@Base 2.48.3-1
 _ZTI11NCPopupMenu@Base 2.48.3-1
 _ZTI11NCSchrollCB@Base 2.48.3-1
 _ZTI11NCScrollbar@Base 2.48.3-1
 _ZTI11NCTableHead@Base 2.48.3-1
 _ZTI11NCTableLine@Base 2.48.3-1
 _ZTI11NCTimeField@Base 2.48.3-1
 _ZTI11NCtoY2Event@Base 2.48.3-1
 _ZTI12NCAskForFile@Base 2.48.3-1
 _ZTI12NCInputField@Base 2.48.3-1
 _ZTI12NCMenuButton@Base 2.48.3-1
 _ZTI12NCPopupTable@Base 2.48.3-1
 _ZTI12NCPushButton@Base 2.48.3-1
 _ZTI12NCScrollHint@Base 2.48.3-1
 _ZTI12NCursesError@Base 2.48.3-1
 _ZTI12NCursesEvent@Base 2.48.3-1
 _ZTI12NCursesPanel@Base 2.48.3-1
 _ZTI12YCancelEvent@Base 2.48.3-1
 _ZTI13NCApplication@Base 2.48.3-1
 _ZTI13NCProgressBar@Base 2.48.3-1
 _ZTI13NCRadioButton@Base 2.48.3-1
 _ZTI13NCursesWindow@Base 2.48.3-1
 _ZTI13YTimeoutEvent@Base 2.48.3-1
 _ZTI14NCReplacePoint@Base 2.48.3-1
 _ZTI14NCSelectionBox@Base 2.48.3-1
 _ZTI15NCBusyIndicator@Base 2.48.3-1
 _ZTI15NCCheckBoxFrame@Base 2.48.3-1
 _ZTI15NCFileSelection@Base 2.48.3-1
 _ZTI15NCInputTextBase@Base 2.48.3-1
 _ZTI15NCMultiLineEdit@Base 2.48.3-1
 _ZTI15NCWidgetFactory@Base 2.48.3-1
 _ZTI16NCDirectoryTable@Base 2.48.3-1
 _ZTI16NCPopupTextEntry@Base 2.48.3-1
 _ZTI16NCursesException@Base 2.48.3-1
 _ZTI16NCursesUserPanelI8NCDialogE@Base 2.48.3-1
 _ZTI18NCFileSelectionTag@Base 2.48.3-1
 _ZTI18NCRadioButtonGroup@Base 2.48.3-1
 _ZTI18NCTableSortDefault@Base 2.48.3-1
 _ZTI18YUIPluginException@Base 2.48.3-1
 _ZTI19NCMultiSelectionBox@Base 2.48.3-1
 _ZTI20NCAskForExistingFile@Base 2.48.3-1
 _ZTI20NCAskForSaveFileName@Base 2.48.3-1
 _ZTI21NCursesPanelException@Base 2.48.3-1
 _ZTI22YPackageSelectorPlugin@Base 2.48.3-1
 _ZTI23NCOptionalWidgetFactory@Base 2.48.3-1
 _ZTI23NCTableSortStrategyBase@Base 2.48.3-1
 _ZTI23YUINullPointerException@Base 2.48.3-1
 _ZTI23YUIOutOfMemoryException@Base 2.48.3-1
 _ZTI25NCAskForExistingDirectory@Base 2.48.3-1
 _ZTI27NCPackageSelectorPluginStub@Base 2.48.3-1
 _ZTI4wpos@Base 2.48.3-1
 _ZTI4wsze@Base 2.48.3-1
 _ZTI5NCPad@Base 2.48.3-1
 _ZTI5YItem@Base 2.48.3-1
 _ZTI5tnodeIP8NCWidgetE@Base 2.48.3-1
 _ZTI5wpair@Base 2.48.3-1
 _ZTI5wrect@Base 2.48.3-1
 _ZTI6NCTree@Base 2.48.3-1
 _ZTI6NCtext@Base 2.48.3-1
 _ZTI7NCEmpty@Base 2.48.3-1
 _ZTI7NCFrame@Base 2.48.3-1
 _ZTI7NCImage@Base 2.48.3-1
 _ZTI7NCLabel@Base 2.48.3-1
 _ZTI7NCPopup@Base 2.48.3-1
 _ZTI7NCTable@Base 2.48.3-1
 _ZTI7NClabel@Base 2.48.3-1
 _ZTI7NCurses@Base 2.48.3-1
 _ZTI8NCDialog@Base 2.48.3-1
 _ZTI8NCSquash@Base 2.48.3-1
 _ZTI8NCWidget@Base 2.48.3-1
 _ZTI9NCDumbTab@Base 2.48.3-1
 _ZTI9NCLogView@Base 2.48.3-1
 _ZTI9NCSpacing@Base 2.48.3-1
 _ZTI9NCTextPad@Base 2.48.3-1
 _ZTI9NCTreePad@Base 2.48.3-1
 _ZTI9NCattrset@Base 2.48.3-1
 _ZTI9YMenuItem@Base 2.48.3-1
 _ZTIN10NCStyleDef3WexE@Base 2.48.3-1
 _ZTIN10NCStyleDef4WsetE@Base 2.48.3-1
 _ZTIN10NCStyleDef6SubWinE@Base 2.48.3-1
 _ZTIN10NCStyleDef6WstyleE@Base 2.48.3-1
 _ZTIN10NCStyleDef7WchattrE@Base 2.48.3-1
 _ZTIN10NCStyleDef7WchstatE@Base 2.48.3-1
 _ZTIN5boost16bad_lexical_castE@Base 2.48.3-1
 _ZTIN5boost16exception_detail10clone_baseE@Base 2.48.3-1
 _ZTIN5boost16exception_detail10clone_implINS0_19error_info_injectorINS_16bad_lexical_castEEEEE@Base 2.48.3-1
 _ZTIN5boost16exception_detail10clone_implINS0_19error_info_injectorINS_9gregorian11bad_weekdayEEEEE@Base 2.48.3-1
 _ZTIN5boost16exception_detail10clone_implINS0_19error_info_injectorINS_9gregorian15bad_day_of_yearEEEEE@Base 2.48.3-1
 _ZTIN5boost16exception_detail10clone_implINS0_19error_info_injectorINS_9gregorian16bad_day_of_monthEEEEE@Base 2.48.3-1
 _ZTIN5boost16exception_detail10clone_implINS0_19error_info_injectorINS_9gregorian8bad_yearEEEEE@Base 2.48.3-1
 _ZTIN5boost16exception_detail10clone_implINS0_19error_info_injectorINS_9gregorian9bad_monthEEEEE@Base 2.48.3-1
 _ZTIN5boost16exception_detail19error_info_injectorINS_16bad_lexical_castEEE@Base 2.48.3-1
 _ZTIN5boost16exception_detail19error_info_injectorINS_9gregorian11bad_weekdayEEE@Base 2.48.3-1
 _ZTIN5boost16exception_detail19error_info_injectorINS_9gregorian15bad_day_of_yearEEE@Base 2.48.3-1
 _ZTIN5boost16exception_detail19error_info_injectorINS_9gregorian16bad_day_of_monthEEE@Base 2.48.3-1
 _ZTIN5boost16exception_detail19error_info_injectorINS_9gregorian8bad_yearEEE@Base 2.48.3-1
 _ZTIN5boost16exception_detail19error_info_injectorINS_9gregorian9bad_monthEEE@Base 2.48.3-1
 _ZTIN5boost9date_time16date_input_facetINS_9gregorian4dateEwSt19istreambuf_iteratorIwSt11char_traitsIwEEEE@Base 2.48.3-1
 _ZTIN5boost9exceptionE@Base 2.48.3-1
 _ZTIN5boost9gregorian11bad_weekdayE@Base 2.48.3-1
 _ZTIN5boost9gregorian15bad_day_of_yearE@Base 2.48.3-1
 _ZTIN5boost9gregorian16bad_day_of_monthE@Base 2.48.3-1
 _ZTIN5boost9gregorian8bad_yearE@Base 2.48.3-1
 _ZTIN5boost9gregorian9bad_monthE@Base 2.48.3-1
 _ZTIN7NCstyle5StyleE@Base 2.48.3-1
 _ZTIN7NCstyle8StDialogE@Base 2.48.3-1
 _ZTISbIwSt11char_traitsIwESaIwEE@Base 2.48.3-1
 _ZTS10NCCheckBox@Base 2.48.3-1
 _ZTS10NCComboBox@Base 2.48.3-1
 _ZTS10NCIntField@Base 2.48.3-1
 _ZTS10NCRichText@Base 2.48.3-1
 _ZTS10NCTableCol@Base 2.48.3-1
 _ZTS10NCTablePad@Base 2.48.3-1
 _ZTS10NCTableTag@Base 2.48.3-1
 _ZTS10NCTreeLine@Base 2.48.3-1
 _ZTS10NCursesPad@Base 2.48.3-1
 _ZTS10YMenuEvent@Base 2.48.3-1
 _ZTS10YNCursesUI@Base 2.48.3-1
 _ZTS10YTableCell@Base 2.48.3-1
 _ZTS11NCAlignment@Base 2.48.3-1
 _ZTS11NCButtonBox@Base 2.48.3-1
 _ZTS11NCDateField@Base 2.48.3-1
 _ZTS11NCFileTable@Base 2.48.3-1
 _ZTS11NCLayoutBox@Base 2.48.3-1
 _ZTS11NCPadWidget@Base 2.48.3-1
 _ZTS11NCPopupInfo@Base 2.48.3-1
 _ZTS11NCPopupList@Base 2.48.3-1
 _ZTS11NCPopupMenu@Base 2.48.3-1
 _ZTS11NCSchrollCB@Base 2.48.3-1
 _ZTS11NCScrollbar@Base 2.48.3-1
 _ZTS11NCTableHead@Base 2.48.3-1
 _ZTS11NCTableLine@Base 2.48.3-1
 _ZTS11NCTimeField@Base 2.48.3-1
 _ZTS11NCtoY2Event@Base 2.48.3-1
 _ZTS12NCAskForFile@Base 2.48.3-1
 _ZTS12NCInputField@Base 2.48.3-1
 _ZTS12NCMenuButton@Base 2.48.3-1
 _ZTS12NCPopupTable@Base 2.48.3-1
 _ZTS12NCPushButton@Base 2.48.3-1
 _ZTS12NCScrollHint@Base 2.48.3-1
 _ZTS12NCursesError@Base 2.48.3-1
 _ZTS12NCursesEvent@Base 2.48.3-1
 _ZTS12NCursesPanel@Base 2.48.3-1
 _ZTS12YCancelEvent@Base 2.48.3-1
 _ZTS13NCApplication@Base 2.48.3-1
 _ZTS13NCProgressBar@Base 2.48.3-1
 _ZTS13NCRadioButton@Base 2.48.3-1
 _ZTS13NCursesWindow@Base 2.48.3-1
 _ZTS13YTimeoutEvent@Base 2.48.3-1
 _ZTS14NCReplacePoint@Base 2.48.3-1
 _ZTS14NCSelectionBox@Base 2.48.3-1
 _ZTS15NCBusyIndicator@Base 2.48.3-1
 _ZTS15NCCheckBoxFrame@Base 2.48.3-1
 _ZTS15NCFileSelection@Base 2.48.3-1
 _ZTS15NCInputTextBase@Base 2.48.3-1
 _ZTS15NCMultiLineEdit@Base 2.48.3-1
 _ZTS15NCWidgetFactory@Base 2.48.3-1
 _ZTS16NCDirectoryTable@Base 2.48.3-1
 _ZTS16NCPopupTextEntry@Base 2.48.3-1
 _ZTS16NCursesException@Base 2.48.3-1
 _ZTS16NCursesUserPanelI8NCDialogE@Base 2.48.3-1
 _ZTS18NCFileSelectionTag@Base 2.48.3-1
 _ZTS18NCRadioButtonGroup@Base 2.48.3-1
 _ZTS18NCTableSortDefault@Base 2.48.3-1
 _ZTS18YUIPluginException@Base 2.48.3-1
 _ZTS19NCMultiSelectionBox@Base 2.48.3-1
 _ZTS20NCAskForExistingFile@Base 2.48.3-1
 _ZTS20NCAskForSaveFileName@Base 2.48.3-1
 _ZTS21NCursesPanelException@Base 2.48.3-1
 _ZTS22YPackageSelectorPlugin@Base 2.48.3-1
 _ZTS23NCOptionalWidgetFactory@Base 2.48.3-1
 _ZTS23NCTableSortStrategyBase@Base 2.48.3-1
 _ZTS23YUINullPointerException@Base 2.48.3-1
 _ZTS23YUIOutOfMemoryException@Base 2.48.3-1
 _ZTS25NCAskForExistingDirectory@Base 2.48.3-1
 _ZTS27NCPackageSelectorPluginStub@Base 2.48.3-1
 _ZTS4wpos@Base 2.48.3-1
 _ZTS4wsze@Base 2.48.3-1
 _ZTS5NCPad@Base 2.48.3-1
 _ZTS5YItem@Base 2.48.3-1
 _ZTS5tnodeIP8NCWidgetE@Base 2.48.3-1
 _ZTS5wpair@Base 2.48.3-1
 _ZTS5wrect@Base 2.48.3-1
 _ZTS6NCTree@Base 2.48.3-1
 _ZTS6NCtext@Base 2.48.3-1
 _ZTS7NCEmpty@Base 2.48.3-1
 _ZTS7NCFrame@Base 2.48.3-1
 _ZTS7NCImage@Base 2.48.3-1
 _ZTS7NCLabel@Base 2.48.3-1
 _ZTS7NCPopup@Base 2.48.3-1
 _ZTS7NCTable@Base 2.48.3-1
 _ZTS7NClabel@Base 2.48.3-1
 _ZTS7NCurses@Base 2.48.3-1
 _ZTS8NCDialog@Base 2.48.3-1
 _ZTS8NCSquash@Base 2.48.3-1
 _ZTS8NCWidget@Base 2.48.3-1
 _ZTS9NCDumbTab@Base 2.48.3-1
 _ZTS9NCLogView@Base 2.48.3-1
 _ZTS9NCSpacing@Base 2.48.3-1
 _ZTS9NCTextPad@Base 2.48.3-1
 _ZTS9NCTreePad@Base 2.48.3-1
 _ZTS9NCattrset@Base 2.48.3-1
 _ZTS9YMenuItem@Base 2.48.3-1
 _ZTSN10NCStyleDef3WexE@Base 2.48.3-1
 _ZTSN10NCStyleDef4WsetE@Base 2.48.3-1
 _ZTSN10NCStyleDef6SubWinE@Base 2.48.3-1
 _ZTSN10NCStyleDef6WstyleE@Base 2.48.3-1
 _ZTSN10NCStyleDef7WchattrE@Base 2.48.3-1
 _ZTSN10NCStyleDef7WchstatE@Base 2.48.3-1
 _ZTSN5boost16bad_lexical_castE@Base 2.48.3-1
 _ZTSN5boost16exception_detail10clone_baseE@Base 2.48.3-1
 _ZTSN5boost16exception_detail10clone_implINS0_19error_info_injectorINS_16bad_lexical_castEEEEE@Base 2.48.3-1
 _ZTSN5boost16exception_detail10clone_implINS0_19error_info_injectorINS_9gregorian11bad_weekdayEEEEE@Base 2.48.3-1
 _ZTSN5boost16exception_detail10clone_implINS0_19error_info_injectorINS_9gregorian15bad_day_of_yearEEEEE@Base 2.48.3-1
 _ZTSN5boost16exception_detail10clone_implINS0_19error_info_injectorINS_9gregorian16bad_day_of_monthEEEEE@Base 2.48.3-1
 _ZTSN5boost16exception_detail10clone_implINS0_19error_info_injectorINS_9gregorian8bad_yearEEEEE@Base 2.48.3-1
 _ZTSN5boost16exception_detail10clone_implINS0_19error_info_injectorINS_9gregorian9bad_monthEEEEE@Base 2.48.3-1
 _ZTSN5boost16exception_detail19error_info_injectorINS_16bad_lexical_castEEE@Base 2.48.3-1
 _ZTSN5boost16exception_detail19error_info_injectorINS_9gregorian11bad_weekdayEEE@Base 2.48.3-1
 _ZTSN5boost16exception_detail19error_info_injectorINS_9gregorian15bad_day_of_yearEEE@Base 2.48.3-1
 _ZTSN5boost16exception_detail19error_info_injectorINS_9gregorian16bad_day_of_monthEEE@Base 2.48.3-1
 _ZTSN5boost16exception_detail19error_info_injectorINS_9gregorian8bad_yearEEE@Base 2.48.3-1
 _ZTSN5boost16exception_detail19error_info_injectorINS_9gregorian9bad_monthEEE@Base 2.48.3-1
 _ZTSN5boost9date_time16date_input_facetINS_9gregorian4dateEwSt19istreambuf_iteratorIwSt11char_traitsIwEEEE@Base 2.48.3-1
 _ZTSN5boost9exceptionE@Base 2.48.3-1
 _ZTSN5boost9gregorian11bad_weekdayE@Base 2.48.3-1
 _ZTSN5boost9gregorian15bad_day_of_yearE@Base 2.48.3-1
 _ZTSN5boost9gregorian16bad_day_of_monthE@Base 2.48.3-1
 _ZTSN5boost9gregorian8bad_yearE@Base 2.48.3-1
 _ZTSN5boost9gregorian9bad_monthE@Base 2.48.3-1
 _ZTSN7NCstyle5StyleE@Base 2.48.3-1
 _ZTSN7NCstyle8StDialogE@Base 2.48.3-1
 _ZTSSbIwSt11char_traitsIwESaIwEE@Base 2.48.3-1
 _ZTTN5boost16exception_detail10clone_implINS0_19error_info_injectorINS_16bad_lexical_castEEEEE@Base 2.48.3-1
 _ZTTN5boost16exception_detail10clone_implINS0_19error_info_injectorINS_9gregorian11bad_weekdayEEEEE@Base 2.48.3-1
 _ZTTN5boost16exception_detail10clone_implINS0_19error_info_injectorINS_9gregorian15bad_day_of_yearEEEEE@Base 2.48.3-1
 _ZTTN5boost16exception_detail10clone_implINS0_19error_info_injectorINS_9gregorian16bad_day_of_monthEEEEE@Base 2.48.3-1
 _ZTTN5boost16exception_detail10clone_implINS0_19error_info_injectorINS_9gregorian8bad_yearEEEEE@Base 2.48.3-1
 _ZTTN5boost16exception_detail10clone_implINS0_19error_info_injectorINS_9gregorian9bad_monthEEEEE@Base 2.48.3-1
 _ZTV10NCCheckBox@Base 2.48.3-1
 _ZTV10NCComboBox@Base 2.48.3-1
 _ZTV10NCIntField@Base 2.48.3-1
 _ZTV10NCRichText@Base 2.48.3-1
 _ZTV10NCTableCol@Base 2.48.3-1
 _ZTV10NCTablePad@Base 2.48.3-1
 _ZTV10NCTableTag@Base 2.48.3-1
 _ZTV10NCTreeLine@Base 2.48.3-1
 _ZTV10NCursesPad@Base 2.48.3-1
 _ZTV10YMenuEvent@Base 2.48.3-1
 _ZTV10YNCursesUI@Base 2.48.3-1
 _ZTV10YTableCell@Base 2.48.3-1
 _ZTV11NCAlignment@Base 2.48.3-1
 _ZTV11NCButtonBox@Base 2.48.3-1
 _ZTV11NCDateField@Base 2.48.3-1
 _ZTV11NCFileTable@Base 2.48.3-1
 _ZTV11NCLayoutBox@Base 2.48.3-1
 _ZTV11NCPadWidget@Base 2.48.3-1
 _ZTV11NCPopupInfo@Base 2.48.3-1
 _ZTV11NCPopupList@Base 2.48.3-1
 _ZTV11NCPopupMenu@Base 2.48.3-1
 _ZTV11NCSchrollCB@Base 2.48.3-1
 _ZTV11NCScrollbar@Base 2.48.3-1
 _ZTV11NCTableHead@Base 2.48.3-1
 _ZTV11NCTableLine@Base 2.48.3-1
 _ZTV11NCTimeField@Base 2.48.3-1
 _ZTV11NCtoY2Event@Base 2.48.3-1
 _ZTV12NCAskForFile@Base 2.48.3-1
 _ZTV12NCInputField@Base 2.48.3-1
 _ZTV12NCMenuButton@Base 2.48.3-1
 _ZTV12NCPopupTable@Base 2.48.3-1
 _ZTV12NCPushButton@Base 2.48.3-1
 _ZTV12NCScrollHint@Base 2.48.3-1
 _ZTV12NCursesError@Base 2.48.3-1
 _ZTV12NCursesEvent@Base 2.48.3-1
 _ZTV12NCursesPanel@Base 2.48.3-1
 _ZTV12YCancelEvent@Base 2.48.3-1
 _ZTV13NCApplication@Base 2.48.3-1
 _ZTV13NCProgressBar@Base 2.48.3-1
 _ZTV13NCRadioButton@Base 2.48.3-1
 _ZTV13NCursesWindow@Base 2.48.3-1
 _ZTV13YTimeoutEvent@Base 2.48.3-1
 _ZTV14NCReplacePoint@Base 2.48.3-1
 _ZTV14NCSelectionBox@Base 2.48.3-1
 _ZTV15NCBusyIndicator@Base 2.48.3-1
 _ZTV15NCCheckBoxFrame@Base 2.48.3-1
 _ZTV15NCFileSelection@Base 2.48.3-1
 _ZTV15NCInputTextBase@Base 2.48.3-1
 _ZTV15NCMultiLineEdit@Base 2.48.3-1
 _ZTV15NCWidgetFactory@Base 2.48.3-1
 _ZTV16NCDirectoryTable@Base 2.48.3-1
 _ZTV16NCPopupTextEntry@Base 2.48.3-1
 _ZTV16NCursesException@Base 2.48.3-1
 _ZTV16NCursesUserPanelI8NCDialogE@Base 2.48.3-1
 _ZTV18NCFileSelectionTag@Base 2.48.3-1
 _ZTV18NCRadioButtonGroup@Base 2.48.3-1
 _ZTV18NCTableSortDefault@Base 2.48.3-1
 _ZTV18YUIPluginException@Base 2.48.3-1
 _ZTV19NCMultiSelectionBox@Base 2.48.3-1
 _ZTV20NCAskForExistingFile@Base 2.48.3-1
 _ZTV20NCAskForSaveFileName@Base 2.48.3-1
 _ZTV21NCursesPanelException@Base 2.48.3-1
 _ZTV22YPackageSelectorPlugin@Base 2.48.3-1
 _ZTV23NCOptionalWidgetFactory@Base 2.48.3-1
 _ZTV23NCTableSortStrategyBase@Base 2.48.3-1
 _ZTV23YUINullPointerException@Base 2.48.3-1
 _ZTV23YUIOutOfMemoryException@Base 2.48.3-1
 _ZTV25NCAskForExistingDirectory@Base 2.48.3-1
 _ZTV27NCPackageSelectorPluginStub@Base 2.48.3-1
 _ZTV4wpos@Base 2.48.3-1
 _ZTV4wsze@Base 2.48.3-1
 _ZTV5NCPad@Base 2.48.3-1
 _ZTV5YItem@Base 2.48.3-1
 _ZTV5tnodeIP8NCWidgetE@Base 2.48.3-1
 _ZTV5wpair@Base 2.48.3-1
 _ZTV5wrect@Base 2.48.3-1
 _ZTV6NCTree@Base 2.48.3-1
 _ZTV6NCtext@Base 2.48.3-1
 _ZTV7NCEmpty@Base 2.48.3-1
 _ZTV7NCFrame@Base 2.48.3-1
 _ZTV7NCImage@Base 2.48.3-1
 _ZTV7NCLabel@Base 2.48.3-1
 _ZTV7NCPopup@Base 2.48.3-1
 _ZTV7NCTable@Base 2.48.3-1
 _ZTV7NClabel@Base 2.48.3-1
 _ZTV7NCurses@Base 2.48.3-1
 _ZTV8NCDialog@Base 2.48.3-1
 _ZTV8NCSquash@Base 2.48.3-1
 _ZTV8NCWidget@Base 2.48.3-1
 _ZTV9NCDumbTab@Base 2.48.3-1
 _ZTV9NCLogView@Base 2.48.3-1
 _ZTV9NCSpacing@Base 2.48.3-1
 _ZTV9NCTextPad@Base 2.48.3-1
 _ZTV9NCTreePad@Base 2.48.3-1
 _ZTV9NCattrset@Base 2.48.3-1
 _ZTV9YMenuItem@Base 2.48.3-1
 _ZTVN10NCStyleDef3WexE@Base 2.48.3-1
 _ZTVN10NCStyleDef4WsetE@Base 2.48.3-1
 _ZTVN10NCStyleDef6SubWinE@Base 2.48.3-1
 _ZTVN10NCStyleDef6WstyleE@Base 2.48.3-1
 _ZTVN10NCStyleDef7WchattrE@Base 2.48.3-1
 _ZTVN10NCStyleDef7WchstatE@Base 2.48.3-1
 _ZTVN5boost16bad_lexical_castE@Base 2.48.3-1
 _ZTVN5boost16exception_detail10clone_baseE@Base 2.48.3-1
 _ZTVN5boost16exception_detail10clone_implINS0_19error_info_injectorINS_16bad_lexical_castEEEEE@Base 2.48.3-1
 _ZTVN5boost16exception_detail10clone_implINS0_19error_info_injectorINS_9gregorian11bad_weekdayEEEEE@Base 2.48.3-1
 _ZTVN5boost16exception_detail10clone_implINS0_19error_info_injectorINS_9gregorian15bad_day_of_yearEEEEE@Base 2.48.3-1
 _ZTVN5boost16exception_detail10clone_implINS0_19error_info_injectorINS_9gregorian16bad_day_of_monthEEEEE@Base 2.48.3-1
 _ZTVN5boost16exception_detail10clone_implINS0_19error_info_injectorINS_9gregorian8bad_yearEEEEE@Base 2.48.3-1
 _ZTVN5boost16exception_detail10clone_implINS0_19error_info_injectorINS_9gregorian9bad_monthEEEEE@Base 2.48.3-1
 _ZTVN5boost16exception_detail19error_info_injectorINS_16bad_lexical_castEEE@Base 2.48.3-1
 _ZTVN5boost16exception_detail19error_info_injectorINS_9gregorian11bad_weekdayEEE@Base 2.48.3-1
 _ZTVN5boost16exception_detail19error_info_injectorINS_9gregorian15bad_day_of_yearEEE@Base 2.48.3-1
 _ZTVN5boost16exception_detail19error_info_injectorINS_9gregorian16bad_day_of_monthEEE@Base 2.48.3-1
 _ZTVN5boost16exception_detail19error_info_injectorINS_9gregorian8bad_yearEEE@Base 2.48.3-1
 _ZTVN5boost16exception_detail19error_info_injectorINS_9gregorian9bad_monthEEE@Base 2.48.3-1
 _ZTVN5boost9date_time16date_input_facetINS_9gregorian4dateEwSt19istreambuf_iteratorIwSt11char_traitsIwEEEE@Base 2.48.3-1
 _ZTVN5boost9exceptionE@Base 2.48.3-1
 _ZTVN5boost9gregorian11bad_weekdayE@Base 2.48.3-1
 _ZTVN5boost9gregorian15bad_day_of_yearE@Base 2.48.3-1
 _ZTVN5boost9gregorian16bad_day_of_monthE@Base 2.48.3-1
 _ZTVN5boost9gregorian8bad_yearE@Base 2.48.3-1
 _ZTVN5boost9gregorian9bad_monthE@Base 2.48.3-1
 _ZTVN7NCstyle5StyleE@Base 2.48.3-1
 _ZThn128_N10YNCursesUI15runPkgSelectionEP7YWidget@Base 2.48.3-1
 _ZThn128_N10YNCursesUI17createApplicationEv@Base 2.48.3-1
 _ZThn128_N10YNCursesUI19createWidgetFactoryEv@Base 2.48.3-1
 _ZThn128_N10YNCursesUI27createOptionalWidgetFactoryEv@Base 2.48.3-1
 _ZThn128_N10YNCursesUI8idleLoopEi@Base 2.48.3-1
 _ZThn128_N10YNCursesUID0Ev@Base 2.48.3-1
 _ZThn128_N10YNCursesUID1Ev@Base 2.48.3-1
 _ZThn16_N5boost16exception_detail10clone_implINS0_19error_info_injectorINS_9gregorian11bad_weekdayEEEED0Ev@Base 2.48.3-1
 _ZThn16_N5boost16exception_detail10clone_implINS0_19error_info_injectorINS_9gregorian11bad_weekdayEEEED1Ev@Base 2.48.3-1
 _ZThn16_N5boost16exception_detail10clone_implINS0_19error_info_injectorINS_9gregorian15bad_day_of_yearEEEED0Ev@Base 2.48.3-1
 _ZThn16_N5boost16exception_detail10clone_implINS0_19error_info_injectorINS_9gregorian15bad_day_of_yearEEEED1Ev@Base 2.48.3-1
 _ZThn16_N5boost16exception_detail10clone_implINS0_19error_info_injectorINS_9gregorian16bad_day_of_monthEEEED0Ev@Base 2.48.3-1
 _ZThn16_N5boost16exception_detail10clone_implINS0_19error_info_injectorINS_9gregorian16bad_day_of_monthEEEED1Ev@Base 2.48.3-1
 _ZThn16_N5boost16exception_detail10clone_implINS0_19error_info_injectorINS_9gregorian8bad_yearEEEED0Ev@Base 2.48.3-1
 _ZThn16_N5boost16exception_detail10clone_implINS0_19error_info_injectorINS_9gregorian8bad_yearEEEED1Ev@Base 2.48.3-1
 _ZThn16_N5boost16exception_detail10clone_implINS0_19error_info_injectorINS_9gregorian9bad_monthEEEED0Ev@Base 2.48.3-1
 _ZThn16_N5boost16exception_detail10clone_implINS0_19error_info_injectorINS_9gregorian9bad_monthEEEED1Ev@Base 2.48.3-1
 _ZThn16_N5boost16exception_detail19error_info_injectorINS_9gregorian11bad_weekdayEED0Ev@Base 2.48.3-1
 _ZThn16_N5boost16exception_detail19error_info_injectorINS_9gregorian11bad_weekdayEED1Ev@Base 2.48.3-1
 _ZThn16_N5boost16exception_detail19error_info_injectorINS_9gregorian15bad_day_of_yearEED0Ev@Base 2.48.3-1
 _ZThn16_N5boost16exception_detail19error_info_injectorINS_9gregorian15bad_day_of_yearEED1Ev@Base 2.48.3-1
 _ZThn16_N5boost16exception_detail19error_info_injectorINS_9gregorian16bad_day_of_monthEED0Ev@Base 2.48.3-1
 _ZThn16_N5boost16exception_detail19error_info_injectorINS_9gregorian16bad_day_of_monthEED1Ev@Base 2.48.3-1
 _ZThn16_N5boost16exception_detail19error_info_injectorINS_9gregorian8bad_yearEED0Ev@Base 2.48.3-1
 _ZThn16_N5boost16exception_detail19error_info_injectorINS_9gregorian8bad_yearEED1Ev@Base 2.48.3-1
 _ZThn16_N5boost16exception_detail19error_info_injectorINS_9gregorian9bad_monthEED0Ev@Base 2.48.3-1
 _ZThn16_N5boost16exception_detail19error_info_injectorINS_9gregorian9bad_monthEED1Ev@Base 2.48.3-1
 _ZThn24_N14NCReplacePoint10setEnabledEb@Base 2.48.3-1
 _ZThn24_N14NCReplacePointD0Ev@Base 2.48.3-1
 _ZThn24_N14NCReplacePointD1Ev@Base 2.48.3-1
 _ZThn24_N5boost16exception_detail10clone_implINS0_19error_info_injectorINS_16bad_lexical_castEEEED0Ev@Base 2.48.3-1
 _ZThn24_N5boost16exception_detail10clone_implINS0_19error_info_injectorINS_16bad_lexical_castEEEED1Ev@Base 2.48.3-1
 _ZThn24_N5boost16exception_detail19error_info_injectorINS_16bad_lexical_castEED0Ev@Base 2.48.3-1
 _ZThn24_N5boost16exception_detail19error_info_injectorINS_16bad_lexical_castEED1Ev@Base 2.48.3-1
 _ZThn24_NK14NCReplacePoint8locationEv@Base 2.48.3-1
 _ZThn296_N11NCPadWidget10ScrollHeadER13NCursesWindowj@Base 2.48.3-1
 _ZThn296_N11NCPadWidget13AdjustPadSizeER4wsze@Base 2.48.3-1
 _ZThn296_N11NCPadWidget7HScrollEjjj@Base 2.48.3-1
 _ZThn296_N11NCPadWidget7VScrollEjjj@Base 2.48.3-1
 _ZThn296_N11NCPadWidgetD0Ev@Base 2.48.3-1
 _ZThn296_N11NCPadWidgetD1Ev@Base 2.48.3-1
 _ZThn328_N10NCRichText7HScrollEjjj@Base 2.48.3-1
 _ZThn328_N10NCRichText7VScrollEjjj@Base 2.48.3-1
 _ZThn328_N10NCRichTextD0Ev@Base 2.48.3-1
 _ZThn328_N10NCRichTextD1Ev@Base 2.48.3-1
 _ZThn328_N15NCMultiLineEditD0Ev@Base 2.48.3-1
 _ZThn328_N15NCMultiLineEditD1Ev@Base 2.48.3-1
 _ZThn328_N9NCLogViewD0Ev@Base 2.48.3-1
 _ZThn328_N9NCLogViewD1Ev@Base 2.48.3-1
 _ZThn32_N10NCCheckBox10setEnabledEb@Base 2.48.3-1
 _ZThn32_N10NCCheckBox12wHandleInputEj@Base 2.48.3-1
 _ZThn32_N10NCCheckBox7wRedrawEv@Base 2.48.3-1
 _ZThn32_N10NCCheckBoxD0Ev@Base 2.48.3-1
 _ZThn32_N10NCCheckBoxD1Ev@Base 2.48.3-1
 _ZThn32_N10NCIntField10setEnabledEb@Base 2.48.3-1
 _ZThn32_N10NCIntField12wHandleInputEj@Base 2.48.3-1
 _ZThn32_N10NCIntField7wCreateERK5wrect@Base 2.48.3-1
 _ZThn32_N10NCIntField7wDeleteEv@Base 2.48.3-1
 _ZThn32_N10NCIntField7wRedrawEv@Base 2.48.3-1
 _ZThn32_N10NCIntFieldD0Ev@Base 2.48.3-1
 _ZThn32_N10NCIntFieldD1Ev@Base 2.48.3-1
 _ZThn32_N10NCRichText10setEnabledEb@Base 2.48.3-1
 _ZThn32_N10NCRichText11handleInputEj@Base 2.48.3-1
 _ZThn32_N10NCRichText12wHandleInputEj@Base 2.48.3-1
 _ZThn32_N10NCRichText7DrawPadEv@Base 2.48.3-1
 _ZThn32_N10NCRichText7HScrollEjjj@Base 2.48.3-1
 _ZThn32_N10NCRichText7VScrollEjjj@Base 2.48.3-1
 _ZThn32_N10NCRichText7wRedrawEv@Base 2.48.3-1
 _ZThn32_N10NCRichText8wRecodedEv@Base 2.48.3-1
 _ZThn32_N10NCRichText9CreatePadEv@Base 2.48.3-1
 _ZThn32_N10NCRichTextD0Ev@Base 2.48.3-1
 _ZThn32_N10NCRichTextD1Ev@Base 2.48.3-1
 _ZThn32_N11NCAlignment10setEnabledEb@Base 2.48.3-1
 _ZThn32_N11NCAlignmentD0Ev@Base 2.48.3-1
 _ZThn32_N11NCAlignmentD1Ev@Base 2.48.3-1
 _ZThn32_N11NCButtonBox10setEnabledEb@Base 2.48.3-1
 _ZThn32_N11NCButtonBoxD0Ev@Base 2.48.3-1
 _ZThn32_N11NCButtonBoxD1Ev@Base 2.48.3-1
 _ZThn32_N11NCLayoutBox10setEnabledEb@Base 2.48.3-1
 _ZThn32_N11NCLayoutBoxD0Ev@Base 2.48.3-1
 _ZThn32_N11NCLayoutBoxD1Ev@Base 2.48.3-1
 _ZThn32_N11NCPopupInfo12wHandleInputEj@Base 2.48.3-1
 _ZThn32_N11NCPopupInfoD0Ev@Base 2.48.3-1
 _ZThn32_N11NCPopupInfoD1Ev@Base 2.48.3-1
 _ZThn32_N11NCPopupListD0Ev@Base 2.48.3-1
 _ZThn32_N11NCPopupListD1Ev@Base 2.48.3-1
 _ZThn32_N11NCPopupMenu12wHandleInputEj@Base 2.48.3-1
 _ZThn32_N11NCPopupMenuD0Ev@Base 2.48.3-1
 _ZThn32_N11NCPopupMenuD1Ev@Base 2.48.3-1
 _ZThn32_N12NCAskForFile12wHandleInputEj@Base 2.48.3-1
 _ZThn32_N12NCInputField10setEnabledEb@Base 2.48.3-1
 _ZThn32_N12NCInputField12wHandleInputEj@Base 2.48.3-1
 _ZThn32_N12NCInputField7wCreateERK5wrect@Base 2.48.3-1
 _ZThn32_N12NCInputField7wDeleteEv@Base 2.48.3-1
 _ZThn32_N12NCInputField7wRedrawEv@Base 2.48.3-1
 _ZThn32_N12NCInputFieldD0Ev@Base 2.48.3-1
 _ZThn32_N12NCInputFieldD1Ev@Base 2.48.3-1
 _ZThn32_N12NCPopupTable13wHandleHotkeyEj@Base 2.48.3-1
 _ZThn32_N12NCPopupTableD0Ev@Base 2.48.3-1
 _ZThn32_N12NCPopupTableD1Ev@Base 2.48.3-1
 _ZThn32_N12NCPushButton10setEnabledEb@Base 2.48.3-1
 _ZThn32_N12NCPushButton12wHandleInputEj@Base 2.48.3-1
 _ZThn32_N12NCPushButton7wRedrawEv@Base 2.48.3-1
 _ZThn32_N12NCPushButtonD0Ev@Base 2.48.3-1
 _ZThn32_N12NCPushButtonD1Ev@Base 2.48.3-1
 _ZThn32_N13NCProgressBar10setEnabledEb@Base 2.48.3-1
 _ZThn32_N13NCProgressBar7wCreateERK5wrect@Base 2.48.3-1
 _ZThn32_N13NCProgressBar7wDeleteEv@Base 2.48.3-1
 _ZThn32_N13NCProgressBar7wRedrawEv@Base 2.48.3-1
 _ZThn32_N13NCProgressBarD0Ev@Base 2.48.3-1
 _ZThn32_N13NCProgressBarD1Ev@Base 2.48.3-1
 _ZThn32_N13NCRadioButton10setEnabledEb@Base 2.48.3-1
 _ZThn32_N13NCRadioButton12wHandleInputEj@Base 2.48.3-1
 _ZThn32_N13NCRadioButton7wRedrawEv@Base 2.48.3-1
 _ZThn32_N13NCRadioButtonD0Ev@Base 2.48.3-1
 _ZThn32_N13NCRadioButtonD1Ev@Base 2.48.3-1
 _ZThn32_N15NCBusyIndicator10setEnabledEb@Base 2.48.3-1
 _ZThn32_N15NCBusyIndicator7wCreateERK5wrect@Base 2.48.3-1
 _ZThn32_N15NCBusyIndicator7wDeleteEv@Base 2.48.3-1
 _ZThn32_N15NCBusyIndicator7wRedrawEv@Base 2.48.3-1
 _ZThn32_N15NCBusyIndicatorD0Ev@Base 2.48.3-1
 _ZThn32_N15NCBusyIndicatorD1Ev@Base 2.48.3-1
 _ZThn32_N15NCCheckBoxFrame10setEnabledEb@Base 2.48.3-1
 _ZThn32_N15NCCheckBoxFrame12wHandleInputEj@Base 2.48.3-1
 _ZThn32_N15NCCheckBoxFrame7wRedrawEv@Base 2.48.3-1
 _ZThn32_N15NCCheckBoxFrameD0Ev@Base 2.48.3-1
 _ZThn32_N15NCCheckBoxFrameD1Ev@Base 2.48.3-1
 _ZThn32_N15NCMultiLineEdit10setEnabledEb@Base 2.48.3-1
 _ZThn32_N15NCMultiLineEdit12wHandleInputEj@Base 2.48.3-1
 _ZThn32_N15NCMultiLineEdit7DrawPadEv@Base 2.48.3-1
 _ZThn32_N15NCMultiLineEdit7wRedrawEv@Base 2.48.3-1
 _ZThn32_N15NCMultiLineEdit9CreatePadEv@Base 2.48.3-1
 _ZThn32_N15NCMultiLineEditD0Ev@Base 2.48.3-1
 _ZThn32_N15NCMultiLineEditD1Ev@Base 2.48.3-1
 _ZThn32_N16NCPopupTextEntryD0Ev@Base 2.48.3-1
 _ZThn32_N16NCPopupTextEntryD1Ev@Base 2.48.3-1
 _ZThn32_N18NCRadioButtonGroup10setEnabledEb@Base 2.48.3-1
 _ZThn32_N18NCRadioButtonGroupD0Ev@Base 2.48.3-1
 _ZThn32_N18NCRadioButtonGroupD1Ev@Base 2.48.3-1
 _ZThn32_N20NCAskForExistingFileD0Ev@Base 2.48.3-1
 _ZThn32_N20NCAskForExistingFileD1Ev@Base 2.48.3-1
 _ZThn32_N20NCAskForSaveFileNameD0Ev@Base 2.48.3-1
 _ZThn32_N20NCAskForSaveFileNameD1Ev@Base 2.48.3-1
 _ZThn32_N25NCAskForExistingDirectory12wHandleInputEj@Base 2.48.3-1
 _ZThn32_N25NCAskForExistingDirectoryD0Ev@Base 2.48.3-1
 _ZThn32_N25NCAskForExistingDirectoryD1Ev@Base 2.48.3-1
 _ZThn32_N7NCEmpty10setEnabledEb@Base 2.48.3-1
 _ZThn32_N7NCEmptyD0Ev@Base 2.48.3-1
 _ZThn32_N7NCEmptyD1Ev@Base 2.48.3-1
 _ZThn32_N7NCFrame10setEnabledEb@Base 2.48.3-1
 _ZThn32_N7NCFrame7wRedrawEv@Base 2.48.3-1
 _ZThn32_N7NCFrameD0Ev@Base 2.48.3-1
 _ZThn32_N7NCFrameD1Ev@Base 2.48.3-1
 _ZThn32_N7NCImage10setEnabledEb@Base 2.48.3-1
 _ZThn32_N7NCImageD0Ev@Base 2.48.3-1
 _ZThn32_N7NCImageD1Ev@Base 2.48.3-1
 _ZThn32_N7NCLabel10setEnabledEb@Base 2.48.3-1
 _ZThn32_N7NCLabel7wRedrawEv@Base 2.48.3-1
 _ZThn32_N7NCLabelD0Ev@Base 2.48.3-1
 _ZThn32_N7NCLabelD1Ev@Base 2.48.3-1
 _ZThn32_N7NCPopup12wHandleInputEj@Base 2.48.3-1
 _ZThn32_N7NCPopupD0Ev@Base 2.48.3-1
 _ZThn32_N7NCPopupD1Ev@Base 2.48.3-1
 _ZThn32_N8NCDialog10grabNotifyEP8NCWidget@Base 2.48.3-1
 _ZThn32_N8NCDialog10setEnabledEb@Base 2.48.3-1
 _ZThn32_N8NCDialog12wHandleInputEj@Base 2.48.3-1
 _ZThn32_N8NCDialog13wHandleHotkeyEj@Base 2.48.3-1
 _ZThn32_N8NCDialog7wCreateERK5wrect@Base 2.48.3-1
 _ZThn32_N8NCDialog7wDeleteEv@Base 2.48.3-1
 _ZThn32_N8NCDialog7wMoveToERK4wpos@Base 2.48.3-1
 _ZThn32_N8NCDialog7wRedrawEv@Base 2.48.3-1
 _ZThn32_N8NCDialog7wUpdateEb@Base 2.48.3-1
 _ZThn32_N8NCDialog8wRecodedEv@Base 2.48.3-1
 _ZThn32_N8NCDialog9wantFocusER8NCWidget@Base 2.48.3-1
 _ZThn32_N8NCDialogD0Ev@Base 2.48.3-1
 _ZThn32_N8NCDialogD1Ev@Base 2.48.3-1
 _ZThn32_N8NCSquash10setEnabledEb@Base 2.48.3-1
 _ZThn32_N8NCSquashD0Ev@Base 2.48.3-1
 _ZThn32_N8NCSquashD1Ev@Base 2.48.3-1
 _ZThn32_N9NCLogView10setEnabledEb@Base 2.48.3-1
 _ZThn32_N9NCLogView12wHandleInputEj@Base 2.48.3-1
 _ZThn32_N9NCLogView7DrawPadEv@Base 2.48.3-1
 _ZThn32_N9NCLogView7wRedrawEv@Base 2.48.3-1
 _ZThn32_N9NCLogView8wRecodedEv@Base 2.48.3-1
 _ZThn32_N9NCLogView9CreatePadEv@Base 2.48.3-1
 _ZThn32_N9NCLogViewD0Ev@Base 2.48.3-1
 _ZThn32_N9NCLogViewD1Ev@Base 2.48.3-1
 _ZThn32_N9NCSpacing10setEnabledEb@Base 2.48.3-1
 _ZThn32_N9NCSpacingD0Ev@Base 2.48.3-1
 _ZThn32_N9NCSpacingD1Ev@Base 2.48.3-1
 _ZThn32_NK10NCCheckBox8locationEv@Base 2.48.3-1
 _ZThn32_NK10NCIntField8locationEv@Base 2.48.3-1
 _ZThn32_NK10NCRichText8locationEv@Base 2.48.3-1
 _ZThn32_NK11NCAlignment8locationEv@Base 2.48.3-1
 _ZThn32_NK11NCLayoutBox8locationEv@Base 2.48.3-1
 _ZThn32_NK12NCInputField8locationEv@Base 2.48.3-1
 _ZThn32_NK12NCPushButton8locationEv@Base 2.48.3-1
 _ZThn32_NK13NCProgressBar8locationEv@Base 2.48.3-1
 _ZThn32_NK13NCRadioButton8locationEv@Base 2.48.3-1
 _ZThn32_NK15NCBusyIndicator8locationEv@Base 2.48.3-1
 _ZThn32_NK15NCCheckBoxFrame8locationEv@Base 2.48.3-1
 _ZThn32_NK15NCMultiLineEdit5myPadEv@Base 2.48.3-1
 _ZThn32_NK15NCMultiLineEdit8locationEv@Base 2.48.3-1
 _ZThn32_NK18NCRadioButtonGroup8locationEv@Base 2.48.3-1
 _ZThn32_NK7NCEmpty8locationEv@Base 2.48.3-1
 _ZThn32_NK7NCFrame8locationEv@Base 2.48.3-1
 _ZThn32_NK7NCImage8locationEv@Base 2.48.3-1
 _ZThn32_NK7NCLabel8locationEv@Base 2.48.3-1
 _ZThn32_NK8NCDialog6wStyleEv@Base 2.48.3-1
 _ZThn32_NK8NCDialog8locationEv@Base 2.48.3-1
 _ZThn32_NK8NCSquash8locationEv@Base 2.48.3-1
 _ZThn32_NK9NCLogView8locationEv@Base 2.48.3-1
 _ZThn32_NK9NCSpacing8locationEv@Base 2.48.3-1
 _ZThn336_N11NCFileTableD0Ev@Base 2.48.3-1
 _ZThn336_N11NCFileTableD1Ev@Base 2.48.3-1
 _ZThn336_N14NCSelectionBoxD0Ev@Base 2.48.3-1
 _ZThn336_N14NCSelectionBoxD1Ev@Base 2.48.3-1
 _ZThn336_N15NCFileSelectionD0Ev@Base 2.48.3-1
 _ZThn336_N15NCFileSelectionD1Ev@Base 2.48.3-1
 _ZThn336_N16NCDirectoryTableD0Ev@Base 2.48.3-1
 _ZThn336_N16NCDirectoryTableD1Ev@Base 2.48.3-1
 _ZThn336_N19NCMultiSelectionBoxD0Ev@Base 2.48.3-1
 _ZThn336_N19NCMultiSelectionBoxD1Ev@Base 2.48.3-1
 _ZThn336_N6NCTreeD0Ev@Base 2.48.3-1
 _ZThn336_N6NCTreeD1Ev@Base 2.48.3-1
 _ZThn336_N7NCTableD0Ev@Base 2.48.3-1
 _ZThn336_N7NCTableD1Ev@Base 2.48.3-1
 _ZThn40_N10NCComboBox10setEnabledEb@Base 2.48.3-1
 _ZThn40_N10NCComboBox12wHandleInputEj@Base 2.48.3-1
 _ZThn40_N10NCComboBox7wCreateERK5wrect@Base 2.48.3-1
 _ZThn40_N10NCComboBox7wDeleteEv@Base 2.48.3-1
 _ZThn40_N10NCComboBox7wRedrawEv@Base 2.48.3-1
 _ZThn40_N10NCComboBox8wRecodedEv@Base 2.48.3-1
 _ZThn40_N10NCComboBoxD0Ev@Base 2.48.3-1
 _ZThn40_N10NCComboBoxD1Ev@Base 2.48.3-1
 _ZThn40_N11NCDateField10setEnabledEb@Base 2.48.3-1
 _ZThn40_N11NCDateField12wHandleInputEj@Base 2.48.3-1
 _ZThn40_N11NCDateField14preferredWidthEv@Base 2.48.3-1
 _ZThn40_N11NCDateField15preferredHeightEv@Base 2.48.3-1
 _ZThn40_N11NCDateField7setSizeEii@Base 2.48.3-1
 _ZThn40_N11NCDateFieldD0Ev@Base 2.48.3-1
 _ZThn40_N11NCDateFieldD1Ev@Base 2.48.3-1
 _ZThn40_N11NCFileTable12wHandleInputEj@Base 2.48.3-1
 _ZThn40_N11NCFileTableD0Ev@Base 2.48.3-1
 _ZThn40_N11NCFileTableD1Ev@Base 2.48.3-1
 _ZThn40_N11NCTimeField10setEnabledEb@Base 2.48.3-1
 _ZThn40_N11NCTimeField12wHandleInputEj@Base 2.48.3-1
 _ZThn40_N11NCTimeField14preferredWidthEv@Base 2.48.3-1
 _ZThn40_N11NCTimeField15preferredHeightEv@Base 2.48.3-1
 _ZThn40_N11NCTimeField7setSizeEii@Base 2.48.3-1
 _ZThn40_N11NCTimeFieldD0Ev@Base 2.48.3-1
 _ZThn40_N11NCTimeFieldD1Ev@Base 2.48.3-1
 _ZThn40_N12NCMenuButton10setEnabledEb@Base 2.48.3-1
 _ZThn40_N12NCMenuButton12wHandleInputEj@Base 2.48.3-1
 _ZThn40_N12NCMenuButton7wRedrawEv@Base 2.48.3-1
 _ZThn40_N12NCMenuButtonD0Ev@Base 2.48.3-1
 _ZThn40_N12NCMenuButtonD1Ev@Base 2.48.3-1
 _ZThn40_N14NCSelectionBox10setEnabledEb@Base 2.48.3-1
 _ZThn40_N14NCSelectionBox12wHandleInputEj@Base 2.48.3-1
 _ZThn40_N14NCSelectionBox8wRecodedEv@Base 2.48.3-1
 _ZThn40_N14NCSelectionBox9CreatePadEv@Base 2.48.3-1
 _ZThn40_N14NCSelectionBoxD0Ev@Base 2.48.3-1
 _ZThn40_N14NCSelectionBoxD1Ev@Base 2.48.3-1
 _ZThn40_N15NCFileSelectionD0Ev@Base 2.48.3-1
 _ZThn40_N15NCFileSelectionD1Ev@Base 2.48.3-1
 _ZThn40_N16NCDirectoryTable12wHandleInputEj@Base 2.48.3-1
 _ZThn40_N16NCDirectoryTableD0Ev@Base 2.48.3-1
 _ZThn40_N16NCDirectoryTableD1Ev@Base 2.48.3-1
 _ZThn40_N19NCMultiSelectionBox10setEnabledEb@Base 2.48.3-1
 _ZThn40_N19NCMultiSelectionBox12wHandleInputEj@Base 2.48.3-1
 _ZThn40_N19NCMultiSelectionBox8wRecodedEv@Base 2.48.3-1
 _ZThn40_N19NCMultiSelectionBox9CreatePadEv@Base 2.48.3-1
 _ZThn40_N19NCMultiSelectionBoxD0Ev@Base 2.48.3-1
 _ZThn40_N19NCMultiSelectionBoxD1Ev@Base 2.48.3-1
 _ZThn40_N6NCTree10setEnabledEb@Base 2.48.3-1
 _ZThn40_N6NCTree12wHandleInputEj@Base 2.48.3-1
 _ZThn40_N6NCTree7DrawPadEv@Base 2.48.3-1
 _ZThn40_N6NCTree9CreatePadEv@Base 2.48.3-1
 _ZThn40_N6NCTreeD0Ev@Base 2.48.3-1
 _ZThn40_N6NCTreeD1Ev@Base 2.48.3-1
 _ZThn40_N7NCTable10setEnabledEb@Base 2.48.3-1
 _ZThn40_N7NCTable12wHandleInputEj@Base 2.48.3-1
 _ZThn40_N7NCTable9CreatePadEv@Base 2.48.3-1
 _ZThn40_N7NCTableD0Ev@Base 2.48.3-1
 _ZThn40_N7NCTableD1Ev@Base 2.48.3-1
 _ZThn40_N9NCDumbTab10setEnabledEb@Base 2.48.3-1
 _ZThn40_N9NCDumbTab12wHandleInputEj@Base 2.48.3-1
 _ZThn40_N9NCDumbTab7wRedrawEv@Base 2.48.3-1
 _ZThn40_N9NCDumbTab9HasHotkeyEi@Base 2.48.3-1
 _ZThn40_N9NCDumbTabD0Ev@Base 2.48.3-1
 _ZThn40_N9NCDumbTabD1Ev@Base 2.48.3-1
 _ZThn40_NK10NCComboBox8locationEv@Base 2.48.3-1
 _ZThn40_NK11NCDateField8locationEv@Base 2.48.3-1
 _ZThn40_NK11NCTimeField8locationEv@Base 2.48.3-1
 _ZThn40_NK12NCMenuButton8locationEv@Base 2.48.3-1
 _ZThn40_NK14NCSelectionBox5myPadEv@Base 2.48.3-1
 _ZThn40_NK14NCSelectionBox8locationEv@Base 2.48.3-1
 _ZThn40_NK19NCMultiSelectionBox5myPadEv@Base 2.48.3-1
 _ZThn40_NK19NCMultiSelectionBox8locationEv@Base 2.48.3-1
 _ZThn40_NK6NCTree5myPadEv@Base 2.48.3-1
 _ZThn40_NK6NCTree8locationEv@Base 2.48.3-1
 _ZThn40_NK7NCTable5myPadEv@Base 2.48.3-1
 _ZThn40_NK7NCTable8locationEv@Base 2.48.3-1
 _ZThn40_NK9NCDumbTab8locationEv@Base 2.48.3-1
 _ZThn48_N10NCTablePad8SendHeadEv@Base 2.48.3-1
 _ZThn48_N10NCTablePadD0Ev@Base 2.48.3-1
 _ZThn48_N10NCTablePadD1Ev@Base 2.48.3-1
 _ZThn48_N5NCPadD0Ev@Base 2.48.3-1
 _ZThn48_N5NCPadD1Ev@Base 2.48.3-1
 _ZThn48_N9NCTextPadD0Ev@Base 2.48.3-1
 _ZThn48_N9NCTextPadD1Ev@Base 2.48.3-1
 _ZThn48_N9NCTreePad8SendHeadEv@Base 2.48.3-1
 _ZThn48_N9NCTreePadD0Ev@Base 2.48.3-1
 _ZThn48_N9NCTreePadD1Ev@Base 2.48.3-1
 _ZThn56_N11NCPadWidgetD0Ev@Base 2.48.3-1
 _ZThn56_N11NCPadWidgetD1Ev@Base 2.48.3-1
 _ZThn56_N15NCInputTextBaseD0Ev@Base 2.48.3-1
 _ZThn56_N15NCInputTextBaseD1Ev@Base 2.48.3-1
 _ZThn56_N8NCWidgetD0Ev@Base 2.48.3-1
 _ZThn56_N8NCWidgetD1Ev@Base 2.48.3-1
 _ZThn56_NK11NCPadWidget8locationEv@Base 2.48.3-1
 _ZThn56_NK15NCInputTextBase8locationEv@Base 2.48.3-1
 _ZThn56_NK8NCWidget8locationEv@Base 2.48.3-1
 _ZThn80_N14NCReplacePointD0Ev@Base 2.48.3-1
 _ZThn80_N14NCReplacePointD1Ev@Base 2.48.3-1
 _ZThn80_NK14NCReplacePoint8locationEv@Base 2.48.3-1
 _ZThn88_N10NCCheckBoxD0Ev@Base 2.48.3-1
 _ZThn88_N10NCCheckBoxD1Ev@Base 2.48.3-1
 _ZThn88_N10NCIntFieldD0Ev@Base 2.48.3-1
 _ZThn88_N10NCIntFieldD1Ev@Base 2.48.3-1
 _ZThn88_N10NCRichTextD0Ev@Base 2.48.3-1
 _ZThn88_N10NCRichTextD1Ev@Base 2.48.3-1
 _ZThn88_N11NCAlignmentD0Ev@Base 2.48.3-1
 _ZThn88_N11NCAlignmentD1Ev@Base 2.48.3-1
 _ZThn88_N11NCButtonBoxD0Ev@Base 2.48.3-1
 _ZThn88_N11NCButtonBoxD1Ev@Base 2.48.3-1
 _ZThn88_N11NCLayoutBoxD0Ev@Base 2.48.3-1
 _ZThn88_N11NCLayoutBoxD1Ev@Base 2.48.3-1
 _ZThn88_N11NCPopupInfoD0Ev@Base 2.48.3-1
 _ZThn88_N11NCPopupInfoD1Ev@Base 2.48.3-1
 _ZThn88_N11NCPopupListD0Ev@Base 2.48.3-1
 _ZThn88_N11NCPopupListD1Ev@Base 2.48.3-1
 _ZThn88_N11NCPopupMenuD0Ev@Base 2.48.3-1
 _ZThn88_N11NCPopupMenuD1Ev@Base 2.48.3-1
 _ZThn88_N12NCInputFieldD0Ev@Base 2.48.3-1
 _ZThn88_N12NCInputFieldD1Ev@Base 2.48.3-1
 _ZThn88_N12NCPopupTableD0Ev@Base 2.48.3-1
 _ZThn88_N12NCPopupTableD1Ev@Base 2.48.3-1
 _ZThn88_N12NCPushButtonD0Ev@Base 2.48.3-1
 _ZThn88_N12NCPushButtonD1Ev@Base 2.48.3-1
 _ZThn88_N13NCProgressBarD0Ev@Base 2.48.3-1
 _ZThn88_N13NCProgressBarD1Ev@Base 2.48.3-1
 _ZThn88_N13NCRadioButtonD0Ev@Base 2.48.3-1
 _ZThn88_N13NCRadioButtonD1Ev@Base 2.48.3-1
 _ZThn88_N15NCBusyIndicatorD0Ev@Base 2.48.3-1
 _ZThn88_N15NCBusyIndicatorD1Ev@Base 2.48.3-1
 _ZThn88_N15NCCheckBoxFrameD0Ev@Base 2.48.3-1
 _ZThn88_N15NCCheckBoxFrameD1Ev@Base 2.48.3-1
 _ZThn88_N15NCMultiLineEditD0Ev@Base 2.48.3-1
 _ZThn88_N15NCMultiLineEditD1Ev@Base 2.48.3-1
 _ZThn88_N16NCPopupTextEntryD0Ev@Base 2.48.3-1
 _ZThn88_N16NCPopupTextEntryD1Ev@Base 2.48.3-1
 _ZThn88_N18NCRadioButtonGroupD0Ev@Base 2.48.3-1
 _ZThn88_N18NCRadioButtonGroupD1Ev@Base 2.48.3-1
 _ZThn88_N20NCAskForExistingFileD0Ev@Base 2.48.3-1
 _ZThn88_N20NCAskForExistingFileD1Ev@Base 2.48.3-1
 _ZThn88_N20NCAskForSaveFileNameD0Ev@Base 2.48.3-1
 _ZThn88_N20NCAskForSaveFileNameD1Ev@Base 2.48.3-1
 _ZThn88_N25NCAskForExistingDirectoryD0Ev@Base 2.48.3-1
 _ZThn88_N25NCAskForExistingDirectoryD1Ev@Base 2.48.3-1
 _ZThn88_N7NCEmptyD0Ev@Base 2.48.3-1
 _ZThn88_N7NCEmptyD1Ev@Base 2.48.3-1
 _ZThn88_N7NCFrameD0Ev@Base 2.48.3-1
 _ZThn88_N7NCFrameD1Ev@Base 2.48.3-1
 _ZThn88_N7NCImageD0Ev@Base 2.48.3-1
 _ZThn88_N7NCImageD1Ev@Base 2.48.3-1
 _ZThn88_N7NCLabelD0Ev@Base 2.48.3-1
 _ZThn88_N7NCLabelD1Ev@Base 2.48.3-1
 _ZThn88_N7NCPopupD0Ev@Base 2.48.3-1
 _ZThn88_N7NCPopupD1Ev@Base 2.48.3-1
 _ZThn88_N8NCDialogD0Ev@Base 2.48.3-1
 _ZThn88_N8NCDialogD1Ev@Base 2.48.3-1
 _ZThn88_N8NCSquashD0Ev@Base 2.48.3-1
 _ZThn88_N8NCSquashD1Ev@Base 2.48.3-1
 _ZThn88_N9NCLogViewD0Ev@Base 2.48.3-1
 _ZThn88_N9NCLogViewD1Ev@Base 2.48.3-1
 _ZThn88_N9NCSpacingD0Ev@Base 2.48.3-1
 _ZThn88_N9NCSpacingD1Ev@Base 2.48.3-1
 _ZThn88_NK10NCCheckBox8locationEv@Base 2.48.3-1
 _ZThn88_NK10NCIntField8locationEv@Base 2.48.3-1
 _ZThn88_NK10NCRichText8locationEv@Base 2.48.3-1
 _ZThn88_NK11NCAlignment8locationEv@Base 2.48.3-1
 _ZThn88_NK11NCLayoutBox8locationEv@Base 2.48.3-1
 _ZThn88_NK12NCInputField8locationEv@Base 2.48.3-1
 _ZThn88_NK12NCPushButton8locationEv@Base 2.48.3-1
 _ZThn88_NK13NCProgressBar8locationEv@Base 2.48.3-1
 _ZThn88_NK13NCRadioButton8locationEv@Base 2.48.3-1
 _ZThn88_NK15NCBusyIndicator8locationEv@Base 2.48.3-1
 _ZThn88_NK15NCCheckBoxFrame8locationEv@Base 2.48.3-1
 _ZThn88_NK15NCMultiLineEdit8locationEv@Base 2.48.3-1
 _ZThn88_NK18NCRadioButtonGroup8locationEv@Base 2.48.3-1
 _ZThn88_NK7NCEmpty8locationEv@Base 2.48.3-1
 _ZThn88_NK7NCFrame8locationEv@Base 2.48.3-1
 _ZThn88_NK7NCImage8locationEv@Base 2.48.3-1
 _ZThn88_NK7NCLabel8locationEv@Base 2.48.3-1
 _ZThn88_NK8NCDialog8locationEv@Base 2.48.3-1
 _ZThn88_NK8NCSquash8locationEv@Base 2.48.3-1
 _ZThn88_NK9NCLogView8locationEv@Base 2.48.3-1
 _ZThn88_NK9NCSpacing8locationEv@Base 2.48.3-1
 _ZThn96_N10NCComboBoxD0Ev@Base 2.48.3-1
 _ZThn96_N10NCComboBoxD1Ev@Base 2.48.3-1
 _ZThn96_N11NCDateFieldD0Ev@Base 2.48.3-1
 _ZThn96_N11NCDateFieldD1Ev@Base 2.48.3-1
 _ZThn96_N11NCFileTableD0Ev@Base 2.48.3-1
 _ZThn96_N11NCFileTableD1Ev@Base 2.48.3-1
 _ZThn96_N11NCTimeFieldD0Ev@Base 2.48.3-1
 _ZThn96_N11NCTimeFieldD1Ev@Base 2.48.3-1
 _ZThn96_N12NCMenuButtonD0Ev@Base 2.48.3-1
 _ZThn96_N12NCMenuButtonD1Ev@Base 2.48.3-1
 _ZThn96_N14NCSelectionBoxD0Ev@Base 2.48.3-1
 _ZThn96_N14NCSelectionBoxD1Ev@Base 2.48.3-1
 _ZThn96_N15NCFileSelectionD0Ev@Base 2.48.3-1
 _ZThn96_N15NCFileSelectionD1Ev@Base 2.48.3-1
 _ZThn96_N16NCDirectoryTableD0Ev@Base 2.48.3-1
 _ZThn96_N16NCDirectoryTableD1Ev@Base 2.48.3-1
 _ZThn96_N19NCMultiSelectionBoxD0Ev@Base 2.48.3-1
 _ZThn96_N19NCMultiSelectionBoxD1Ev@Base 2.48.3-1
 _ZThn96_N6NCTreeD0Ev@Base 2.48.3-1
 _ZThn96_N6NCTreeD1Ev@Base 2.48.3-1
 _ZThn96_N7NCTableD0Ev@Base 2.48.3-1
 _ZThn96_N7NCTableD1Ev@Base 2.48.3-1
 _ZThn96_N9NCDumbTabD0Ev@Base 2.48.3-1
 _ZThn96_N9NCDumbTabD1Ev@Base 2.48.3-1
 _ZThn96_NK10NCComboBox8locationEv@Base 2.48.3-1
 _ZThn96_NK11NCDateField8locationEv@Base 2.48.3-1
 _ZThn96_NK11NCTimeField8locationEv@Base 2.48.3-1
 _ZThn96_NK12NCMenuButton8locationEv@Base 2.48.3-1
 _ZThn96_NK14NCSelectionBox8locationEv@Base 2.48.3-1
 _ZThn96_NK19NCMultiSelectionBox8locationEv@Base 2.48.3-1
 _ZThn96_NK6NCTree8locationEv@Base 2.48.3-1
 _ZThn96_NK7NCTable8locationEv@Base 2.48.3-1
 _ZThn96_NK9NCDumbTab8locationEv@Base 2.48.3-1
 _ZTv0_n24_NK5boost16exception_detail10clone_implINS0_19error_info_injectorINS_16bad_lexical_castEEEE5cloneEv@Base 2.48.3-1
 _ZTv0_n24_NK5boost16exception_detail10clone_implINS0_19error_info_injectorINS_9gregorian11bad_weekdayEEEE5cloneEv@Base 2.48.3-1
 _ZTv0_n24_NK5boost16exception_detail10clone_implINS0_19error_info_injectorINS_9gregorian15bad_day_of_yearEEEE5cloneEv@Base 2.48.3-1
 _ZTv0_n24_NK5boost16exception_detail10clone_implINS0_19error_info_injectorINS_9gregorian16bad_day_of_monthEEEE5cloneEv@Base 2.48.3-1
 _ZTv0_n24_NK5boost16exception_detail10clone_implINS0_19error_info_injectorINS_9gregorian8bad_yearEEEE5cloneEv@Base 2.48.3-1
 _ZTv0_n24_NK5boost16exception_detail10clone_implINS0_19error_info_injectorINS_9gregorian9bad_monthEEEE5cloneEv@Base 2.48.3-1
 _ZTv0_n32_NK5boost16exception_detail10clone_implINS0_19error_info_injectorINS_16bad_lexical_castEEEE7rethrowEv@Base 2.48.3-1
 _ZTv0_n32_NK5boost16exception_detail10clone_implINS0_19error_info_injectorINS_9gregorian11bad_weekdayEEEE7rethrowEv@Base 2.48.3-1
 _ZTv0_n32_NK5boost16exception_detail10clone_implINS0_19error_info_injectorINS_9gregorian15bad_day_of_yearEEEE7rethrowEv@Base 2.48.3-1
 _ZTv0_n32_NK5boost16exception_detail10clone_implINS0_19error_info_injectorINS_9gregorian16bad_day_of_monthEEEE7rethrowEv@Base 2.48.3-1
 _ZTv0_n32_NK5boost16exception_detail10clone_implINS0_19error_info_injectorINS_9gregorian8bad_yearEEEE7rethrowEv@Base 2.48.3-1
 _ZTv0_n32_NK5boost16exception_detail10clone_implINS0_19error_info_injectorINS_9gregorian9bad_monthEEEE7rethrowEv@Base 2.48.3-1
 _ZTv0_n40_N5boost16exception_detail10clone_implINS0_19error_info_injectorINS_16bad_lexical_castEEEED0Ev@Base 2.48.3-1
 _ZTv0_n40_N5boost16exception_detail10clone_implINS0_19error_info_injectorINS_16bad_lexical_castEEEED1Ev@Base 2.48.3-1
 _ZTv0_n40_N5boost16exception_detail10clone_implINS0_19error_info_injectorINS_9gregorian11bad_weekdayEEEED0Ev@Base 2.48.3-1
 _ZTv0_n40_N5boost16exception_detail10clone_implINS0_19error_info_injectorINS_9gregorian11bad_weekdayEEEED1Ev@Base 2.48.3-1
 _ZTv0_n40_N5boost16exception_detail10clone_implINS0_19error_info_injectorINS_9gregorian15bad_day_of_yearEEEED0Ev@Base 2.48.3-1
 _ZTv0_n40_N5boost16exception_detail10clone_implINS0_19error_info_injectorINS_9gregorian15bad_day_of_yearEEEED1Ev@Base 2.48.3-1
 _ZTv0_n40_N5boost16exception_detail10clone_implINS0_19error_info_injectorINS_9gregorian16bad_day_of_monthEEEED0Ev@Base 2.48.3-1
 _ZTv0_n40_N5boost16exception_detail10clone_implINS0_19error_info_injectorINS_9gregorian16bad_day_of_monthEEEED1Ev@Base 2.48.3-1
 _ZTv0_n40_N5boost16exception_detail10clone_implINS0_19error_info_injectorINS_9gregorian8bad_yearEEEED0Ev@Base 2.48.3-1
 _ZTv0_n40_N5boost16exception_detail10clone_implINS0_19error_info_injectorINS_9gregorian8bad_yearEEEED1Ev@Base 2.48.3-1
 _ZTv0_n40_N5boost16exception_detail10clone_implINS0_19error_info_injectorINS_9gregorian9bad_monthEEEED0Ev@Base 2.48.3-1
 _ZTv0_n40_N5boost16exception_detail10clone_implINS0_19error_info_injectorINS_9gregorian9bad_monthEEEED1Ev@Base 2.48.3-1
 _ZZN10NCStyleDef10dumpChtypeERSoRKmE4mask@Base 2.48.3-1
 _ZZN10NCStyleDef7Wchstat4statERKNS_4AsetEE3buf@Base 2.48.3-1
 _ZlsRSoN2NC6ADJUSTE@Base 2.48.3-1
 _ZlsRSoN2NC6WStateE@Base 2.48.3-1
 _ZlsRSoPK12NCursesPanel@Base 2.48.3-1
 _ZlsRSoPK13NCursesWindow@Base 2.48.3-1
 _ZlsRSoPK8NCDialog@Base 2.48.3-1
 _ZlsRSoPK8NCWidget@Base 2.48.3-1
 _ZlsRSoRK10NCTableCol@Base 2.48.3-1
 _ZlsRSoRK10NCTablePad@Base 2.48.3-1
 _ZlsRSoRK11NCTableLine@Base 2.48.3-1
 _ZlsRSoRK11NCtoY2Event@Base 2.48.3-1
 _ZlsRSoRK12NCTableStyle@Base 2.48.3-1
 _ZlsRSoRK12NCursesError@Base 2.48.3-1
 _ZlsRSoRK12NCursesEvent@Base 2.48.3-1
 _ZlsRSoRK12NCursesPanel@Base 2.48.3-1
 _ZlsRSoRK13NCursesWindow@Base 2.48.3-1
 _ZlsRSoRK4wpos@Base 2.48.3-1
 _ZlsRSoRK4wsze@Base 2.48.3-1
 _ZlsRSoRK5wpair@Base 2.48.3-1
 _ZlsRSoRK5wrect@Base 2.48.3-1
 _ZlsRSoRK6NCtext@Base 2.48.3-1
 _ZlsRSoRK7NClabel@Base 2.48.3-1
 _ZlsRSoRK7NCurses@Base 2.48.3-1
 _ZlsRSoRK8NCDialog@Base 2.48.3-1
 _ZlsRSoRK8NCWidget@Base 2.48.3-1
 _ZlsRSoRK8NCstring@Base 2.48.3-1
 _ZlsRSoRK9NCTextPad@Base 2.48.3-1
 _ZlsRSoRK9NCTreePad@Base 2.48.3-1
 interval@Base 2.48.3-1
